Archive member included to satisfy reference by file (symbol)

/usr/lib/gcc/arm-none-eabi/9.2.1/thumb/v6-m/nofp/libgcc.a(_udivsi3.o)
                              /f29bms/src/driver/HAL_SlaveChips/STM32_HAL_SlaveChips.o (__aeabi_uidiv)
/usr/lib/gcc/arm-none-eabi/9.2.1/thumb/v6-m/nofp/libgcc.a(_dvmd_tls.o)
                              /usr/lib/gcc/arm-none-eabi/9.2.1/thumb/v6-m/nofp/libgcc.a(_udivsi3.o) (__aeabi_idiv0)
/usr/lib/gcc/arm-none-eabi/9.2.1/thumb/v6-m/nofp/libgcc.a(_muldi3.o)
                              /f29bms/src/driver/HAL_SlaveChips/STM32_HAL_SlaveChips.o (__aeabi_lmul)
/usr/lib/gcc/arm-none-eabi/9.2.1/thumb/v6-m/nofp/libgcc.a(_fixunsdfsi.o)
                              /f29bms/src/app/CAN/STM32_f29bms_dbc.o (__aeabi_d2uiz)
/usr/lib/gcc/arm-none-eabi/9.2.1/thumb/v6-m/nofp/libgcc.a(_fixunsdfdi.o)
                              /f29bms/src/app/CAN/STM32_f29bms_dbc.o (__aeabi_d2ulz)
/usr/lib/gcc/arm-none-eabi/9.2.1/thumb/v6-m/nofp/libgcc.a(_floatundidf.o)
                              /f29bms/src/app/CAN/STM32_f29bms_dbc.o (__aeabi_ul2d)
/usr/lib/gcc/arm-none-eabi/9.2.1/thumb/v6-m/nofp/libgcc.a(divsf3.o)
                              /f29bms/src/driver/HAL_CurrentSensor/STM32_HAL_CurrentSensor.o (__aeabi_fdiv)
/usr/lib/gcc/arm-none-eabi/9.2.1/thumb/v6-m/nofp/libgcc.a(mulsf3.o)
                              /f29bms/src/driver/HAL_CurrentSensor/STM32_HAL_CurrentSensor.o (__aeabi_fmul)
/usr/lib/gcc/arm-none-eabi/9.2.1/thumb/v6-m/nofp/libgcc.a(floatsisf.o)
                              /f29bms/src/driver/HAL_SlaveChips/STM32_HAL_SlaveChips.o (__aeabi_i2f)
/usr/lib/gcc/arm-none-eabi/9.2.1/thumb/v6-m/nofp/libgcc.a(floatunsisf.o)
                              /f29bms/src/driver/HAL_CurrentSensor/STM32_HAL_CurrentSensor.o (__aeabi_ui2f)
/usr/lib/gcc/arm-none-eabi/9.2.1/thumb/v6-m/nofp/libgcc.a(adddf3.o)
                              /usr/lib/gcc/arm-none-eabi/9.2.1/thumb/v6-m/nofp/libgcc.a(_floatundidf.o) (__aeabi_dadd)
/usr/lib/gcc/arm-none-eabi/9.2.1/thumb/v6-m/nofp/libgcc.a(divdf3.o)
                              /f29bms/src/driver/HAL_CurrentSensor/STM32_HAL_CurrentSensor.o (__aeabi_ddiv)
/usr/lib/gcc/arm-none-eabi/9.2.1/thumb/v6-m/nofp/libgcc.a(muldf3.o)
                              /f29bms/src/app/CAN/STM32_f29bms_dbc.o (__aeabi_dmul)
/usr/lib/gcc/arm-none-eabi/9.2.1/thumb/v6-m/nofp/libgcc.a(subdf3.o)
                              /f29bms/src/driver/HAL_CurrentSensor/STM32_HAL_CurrentSensor.o (__aeabi_dsub)
/usr/lib/gcc/arm-none-eabi/9.2.1/thumb/v6-m/nofp/libgcc.a(fixdfsi.o)
                              /f29bms/src/app/CAN/STM32_f29bms_dbc.o (__aeabi_d2iz)
/usr/lib/gcc/arm-none-eabi/9.2.1/thumb/v6-m/nofp/libgcc.a(floatsidf.o)
                              /f29bms/src/app/CAN/STM32_f29bms_dbc.o (__aeabi_i2d)
/usr/lib/gcc/arm-none-eabi/9.2.1/thumb/v6-m/nofp/libgcc.a(floatunsidf.o)
                              /f29bms/src/app/CAN/STM32_f29bms_dbc.o (__aeabi_ui2d)
/usr/lib/gcc/arm-none-eabi/9.2.1/thumb/v6-m/nofp/libgcc.a(extendsfdf2.o)
                              /f29bms/src/driver/HAL_CurrentSensor/STM32_HAL_CurrentSensor.o (__aeabi_f2d)
/usr/lib/gcc/arm-none-eabi/9.2.1/thumb/v6-m/nofp/libgcc.a(truncdfsf2.o)
                              /f29bms/src/driver/HAL_CurrentSensor/STM32_HAL_CurrentSensor.o (__aeabi_d2f)
/usr/lib/gcc/arm-none-eabi/9.2.1/thumb/v6-m/nofp/libgcc.a(_arm_cmpdf2.o)
                              /usr/lib/gcc/arm-none-eabi/9.2.1/thumb/v6-m/nofp/libgcc.a(_fixunsdfsi.o) (__aeabi_dcmpge)
/usr/lib/gcc/arm-none-eabi/9.2.1/thumb/v6-m/nofp/libgcc.a(_clzsi2.o)
                              /usr/lib/gcc/arm-none-eabi/9.2.1/thumb/v6-m/nofp/libgcc.a(divsf3.o) (__clzsi2)
/usr/lib/gcc/arm-none-eabi/9.2.1/thumb/v6-m/nofp/libgcc.a(eqdf2.o)
                              /usr/lib/gcc/arm-none-eabi/9.2.1/thumb/v6-m/nofp/libgcc.a(_arm_cmpdf2.o) (__eqdf2)
/usr/lib/gcc/arm-none-eabi/9.2.1/thumb/v6-m/nofp/libgcc.a(gedf2.o)
                              /usr/lib/gcc/arm-none-eabi/9.2.1/thumb/v6-m/nofp/libgcc.a(_arm_cmpdf2.o) (__gedf2)
/usr/lib/gcc/arm-none-eabi/9.2.1/thumb/v6-m/nofp/libgcc.a(ledf2.o)
                              /usr/lib/gcc/arm-none-eabi/9.2.1/thumb/v6-m/nofp/libgcc.a(_arm_cmpdf2.o) (__ledf2)
/usr/lib/gcc/arm-none-eabi/9.2.1/../../../arm-none-eabi/lib/thumb/v6-m/nofp/libc.a(lib_a-atexit.o)
                              /usr/lib/gcc/arm-none-eabi/9.2.1/../../../arm-none-eabi/lib/thumb/v6-m/nofp/crt0.o (atexit)
/usr/lib/gcc/arm-none-eabi/9.2.1/../../../arm-none-eabi/lib/thumb/v6-m/nofp/libc.a(lib_a-exit.o)
                              /usr/lib/gcc/arm-none-eabi/9.2.1/../../../arm-none-eabi/lib/thumb/v6-m/nofp/crt0.o (exit)
/usr/lib/gcc/arm-none-eabi/9.2.1/../../../arm-none-eabi/lib/thumb/v6-m/nofp/libc.a(lib_a-fini.o)
                              /usr/lib/gcc/arm-none-eabi/9.2.1/../../../arm-none-eabi/lib/thumb/v6-m/nofp/crt0.o (__libc_fini_array)
/usr/lib/gcc/arm-none-eabi/9.2.1/../../../arm-none-eabi/lib/thumb/v6-m/nofp/libc.a(lib_a-impure.o)
                              /usr/lib/gcc/arm-none-eabi/9.2.1/../../../arm-none-eabi/lib/thumb/v6-m/nofp/libc.a(lib_a-exit.o) (_global_impure_ptr)
/usr/lib/gcc/arm-none-eabi/9.2.1/../../../arm-none-eabi/lib/thumb/v6-m/nofp/libc.a(lib_a-init.o)
                              /usr/lib/gcc/arm-none-eabi/9.2.1/../../../arm-none-eabi/lib/thumb/v6-m/nofp/crt0.o (__libc_init_array)
/usr/lib/gcc/arm-none-eabi/9.2.1/../../../arm-none-eabi/lib/thumb/v6-m/nofp/libc.a(lib_a-malloc.o)
                              /f29bms/src/driver/HAL_SlaveChips/STM32_HAL_SlaveChips.o (malloc)
/usr/lib/gcc/arm-none-eabi/9.2.1/../../../arm-none-eabi/lib/thumb/v6-m/nofp/libc.a(lib_a-mallocr.o)
                              /usr/lib/gcc/arm-none-eabi/9.2.1/../../../arm-none-eabi/lib/thumb/v6-m/nofp/libc.a(lib_a-malloc.o) (_malloc_r)
/usr/lib/gcc/arm-none-eabi/9.2.1/../../../arm-none-eabi/lib/thumb/v6-m/nofp/libc.a(lib_a-memcpy-stub.o)
                              /f29bms/src/driver/HAL_Can/STM32_HAL_Can.o (memcpy)
/usr/lib/gcc/arm-none-eabi/9.2.1/../../../arm-none-eabi/lib/thumb/v6-m/nofp/libc.a(lib_a-memset.o)
                              /usr/lib/gcc/arm-none-eabi/9.2.1/../../../arm-none-eabi/lib/thumb/v6-m/nofp/crt0.o (memset)
/usr/lib/gcc/arm-none-eabi/9.2.1/../../../arm-none-eabi/lib/thumb/v6-m/nofp/libc.a(lib_a-mlock.o)
                              /usr/lib/gcc/arm-none-eabi/9.2.1/../../../arm-none-eabi/lib/thumb/v6-m/nofp/libc.a(lib_a-mallocr.o) (__malloc_lock)
/usr/lib/gcc/arm-none-eabi/9.2.1/../../../arm-none-eabi/lib/thumb/v6-m/nofp/libc.a(lib_a-sbrkr.o)
                              /usr/lib/gcc/arm-none-eabi/9.2.1/../../../arm-none-eabi/lib/thumb/v6-m/nofp/libc.a(lib_a-mallocr.o) (_sbrk_r)
/usr/lib/gcc/arm-none-eabi/9.2.1/../../../arm-none-eabi/lib/thumb/v6-m/nofp/libc.a(lib_a-__atexit.o)
                              /usr/lib/gcc/arm-none-eabi/9.2.1/../../../arm-none-eabi/lib/thumb/v6-m/nofp/libc.a(lib_a-atexit.o) (__register_exitproc)
/usr/lib/gcc/arm-none-eabi/9.2.1/../../../arm-none-eabi/lib/thumb/v6-m/nofp/libc.a(lib_a-__call_atexit.o)
                              /usr/lib/gcc/arm-none-eabi/9.2.1/../../../arm-none-eabi/lib/thumb/v6-m/nofp/libc.a(lib_a-exit.o) (__call_exitprocs)
/usr/lib/gcc/arm-none-eabi/9.2.1/../../../arm-none-eabi/lib/thumb/v6-m/nofp/libc.a(lib_a-freer.o)
                              /usr/lib/gcc/arm-none-eabi/9.2.1/../../../arm-none-eabi/lib/thumb/v6-m/nofp/libc.a(lib_a-malloc.o) (_free_r)
/usr/lib/gcc/arm-none-eabi/9.2.1/../../../arm-none-eabi/lib/thumb/v6-m/nofp/libc.a(lib_a-reent.o)
                              /usr/lib/gcc/arm-none-eabi/9.2.1/../../../arm-none-eabi/lib/thumb/v6-m/nofp/libc.a(lib_a-sbrkr.o) (errno)
/usr/lib/gcc/arm-none-eabi/9.2.1/../../../arm-none-eabi/lib/thumb/v6-m/nofp/libnosys.a(sbrk.o)
                              /usr/lib/gcc/arm-none-eabi/9.2.1/../../../arm-none-eabi/lib/thumb/v6-m/nofp/libc.a(lib_a-sbrkr.o) (_sbrk)
/usr/lib/gcc/arm-none-eabi/9.2.1/../../../arm-none-eabi/lib/thumb/v6-m/nofp/libnosys.a(_exit.o)
                              /usr/lib/gcc/arm-none-eabi/9.2.1/../../../arm-none-eabi/lib/thumb/v6-m/nofp/libc.a(lib_a-exit.o) (_exit)

Allocating common symbols
Common symbol       size              file

ADCV                0x2               /f29bms/src/driver/HAL_SlaveChips/STM32_HAL_SlaveChips.o
errno               0x4               /usr/lib/gcc/arm-none-eabi/9.2.1/../../../arm-none-eabi/lib/thumb/v6-m/nofp/libc.a(lib_a-reent.o)
ADAX                0x2               /f29bms/src/driver/HAL_SlaveChips/STM32_HAL_SlaveChips.o

Memory Configuration

Name             Origin             Length             Attributes
RAM              0x0000000020000000 0x0000000000008000 xrw
FLASH            0x0000000008000000 0x0000000000040000 xr
*default*        0x0000000000000000 0xffffffffffffffff

Linker script and memory map

LOAD /usr/lib/gcc/arm-none-eabi/9.2.1/thumb/v6-m/nofp/crti.o
LOAD /usr/lib/gcc/arm-none-eabi/9.2.1/thumb/v6-m/nofp/crtbegin.o
LOAD /usr/lib/gcc/arm-none-eabi/9.2.1/../../../arm-none-eabi/lib/thumb/v6-m/nofp/crt0.o
LOAD /f29bms/src/driver/HAL_Spi/test_STM32_HAL_Spi.o
LOAD /f29bms/src/driver/HAL_Can/STM32_HAL_Can.o
LOAD /f29bms/src/driver/HAL_CurrentSensor/STM32_HAL_CurrentSensor.o
LOAD /f29bms/src/driver/HAL_EEPROM/STM32_HAL_EEPROM.o
LOAD /f29bms/src/driver/HAL_Gpio/STM32_HAL_Gpio.o
LOAD /f29bms/src/driver/HAL_SlaveChips/STM32_HAL_SlaveChips.o
LOAD /f29bms/src/driver/HAL_Watchdog/STM32_HAL_Watchdog.o
LOAD /f29bms/src/driver/HAL_Spi/STM32_HAL_Spi.o
LOAD /f29bms/src/common/counters/STM32_counters.o
LOAD /f29bms/libs/stm32libs/STM32F0xx_StdPeriph_Driver/src/stm32f0xx_adc.o
LOAD /f29bms/libs/stm32libs/STM32F0xx_StdPeriph_Driver/src/stm32f0xx_can.o
LOAD /f29bms/libs/stm32libs/STM32F0xx_StdPeriph_Driver/src/stm32f0xx_cec.o
LOAD /f29bms/libs/stm32libs/STM32F0xx_StdPeriph_Driver/src/stm32f0xx_comp.o
LOAD /f29bms/libs/stm32libs/STM32F0xx_StdPeriph_Driver/src/stm32f0xx_crc.o
LOAD /f29bms/libs/stm32libs/STM32F0xx_StdPeriph_Driver/src/stm32f0xx_crs.o
LOAD /f29bms/libs/stm32libs/STM32F0xx_StdPeriph_Driver/src/stm32f0xx_dac.o
LOAD /f29bms/libs/stm32libs/STM32F0xx_StdPeriph_Driver/src/stm32f0xx_dbgmcu.o
LOAD /f29bms/libs/stm32libs/STM32F0xx_StdPeriph_Driver/src/stm32f0xx_dma.o
LOAD /f29bms/libs/stm32libs/STM32F0xx_StdPeriph_Driver/src/stm32f0xx_exti.o
LOAD /f29bms/libs/stm32libs/STM32F0xx_StdPeriph_Driver/src/stm32f0xx_flash.o
LOAD /f29bms/libs/stm32libs/STM32F0xx_StdPeriph_Driver/src/stm32f0xx_gpio.o
LOAD /f29bms/libs/stm32libs/STM32F0xx_StdPeriph_Driver/src/stm32f0xx_i2c.o
LOAD /f29bms/libs/stm32libs/STM32F0xx_StdPeriph_Driver/src/stm32f0xx_iwdg.o
LOAD /f29bms/libs/stm32libs/STM32F0xx_StdPeriph_Driver/src/stm32f0xx_misc.o
LOAD /f29bms/libs/stm32libs/STM32F0xx_StdPeriph_Driver/src/stm32f0xx_pwr.o
LOAD /f29bms/libs/stm32libs/STM32F0xx_StdPeriph_Driver/src/stm32f0xx_rcc.o
LOAD /f29bms/libs/stm32libs/STM32F0xx_StdPeriph_Driver/src/stm32f0xx_rtc.o
LOAD /f29bms/libs/stm32libs/STM32F0xx_StdPeriph_Driver/src/stm32f0xx_spi.o
LOAD /f29bms/libs/stm32libs/STM32F0xx_StdPeriph_Driver/src/stm32f0xx_syscfg.o
LOAD /f29bms/libs/stm32libs/STM32F0xx_StdPeriph_Driver/src/stm32f0xx_tim.o
LOAD /f29bms/libs/stm32libs/STM32F0xx_StdPeriph_Driver/src/stm32f0xx_usart.o
LOAD /f29bms/libs/stm32libs/STM32F0xx_StdPeriph_Driver/src/stm32f0xx_wwdg.o
LOAD /f29bms/libs/stm32libs/CMSIS/Device/ST/STM32F0xx/Source/Templates/system_stm32f0xx.o
LOAD /f29bms/libs/stm32libs/CMSIS/Device/ST/STM32F0xx/Source/Templates/gcc_ride7/startup_stm32f0xx.o
LOAD /f29bms/src/app/CAN/STM32_f29bms_dbc.o
START GROUP
LOAD /usr/lib/gcc/arm-none-eabi/9.2.1/thumb/v6-m/nofp/libgcc.a
LOAD /usr/lib/gcc/arm-none-eabi/9.2.1/../../../arm-none-eabi/lib/thumb/v6-m/nofp/libc.a
END GROUP
START GROUP
LOAD /usr/lib/gcc/arm-none-eabi/9.2.1/thumb/v6-m/nofp/libgcc.a
LOAD /usr/lib/gcc/arm-none-eabi/9.2.1/../../../arm-none-eabi/lib/thumb/v6-m/nofp/libc.a
LOAD /usr/lib/gcc/arm-none-eabi/9.2.1/../../../arm-none-eabi/lib/thumb/v6-m/nofp/libnosys.a
END GROUP
LOAD /usr/lib/gcc/arm-none-eabi/9.2.1/thumb/v6-m/nofp/crtend.o
LOAD /usr/lib/gcc/arm-none-eabi/9.2.1/thumb/v6-m/nofp/crtn.o
                0x0000000020008000                _estack = 0x20008000
                0x0000000000000200                _Min_Heap_Size = 0x200
                0x0000000000000400                _Min_Stack_Size = 0x400

.isr_vector     0x0000000008000000       0xc4
                0x0000000008000000                . = ALIGN (0x4)
 *(.isr_vector)
 .isr_vector    0x0000000008000000       0xc4 /f29bms/libs/stm32libs/CMSIS/Device/ST/STM32F0xx/Source/Templates/gcc_ride7/startup_stm32f0xx.o
                0x0000000008000000                g_pfnVectors
                0x00000000080000c4                . = ALIGN (0x4)

.text           0x00000000080000c4    0x1ae58
                0x00000000080000c4                . = ALIGN (0x4)
 *(.text)
 .text          0x00000000080000c4        0x0 /usr/lib/gcc/arm-none-eabi/9.2.1/thumb/v6-m/nofp/crti.o
 .text          0x00000000080000c4       0x98 /usr/lib/gcc/arm-none-eabi/9.2.1/thumb/v6-m/nofp/crtbegin.o
 .text          0x000000000800015c       0x74 /usr/lib/gcc/arm-none-eabi/9.2.1/../../../arm-none-eabi/lib/thumb/v6-m/nofp/crt0.o
                0x000000000800015c                _stack_init
                0x0000000008000168                _mainCRTStartup
                0x0000000008000168                _start
 .text          0x00000000080001d0        0xc /f29bms/src/driver/HAL_Spi/test_STM32_HAL_Spi.o
                0x00000000080001d0                main
 .text          0x00000000080001dc      0x24c /f29bms/src/driver/HAL_Can/STM32_HAL_Can.o
                0x00000000080001dc                HAL_Can_init
                0x00000000080002d4                HAL_Can_send_message
                0x00000000080003d8                HAL_number_of_empty_mailboxes
 .text          0x0000000008000428      0x13c /f29bms/src/driver/HAL_CurrentSensor/STM32_HAL_CurrentSensor.o
                0x0000000008000428                HAL_CurrentSensor_init
                0x00000000080004a4                HAL_CurrentSensor_read_current
 .text          0x0000000008000564        0x0 /f29bms/src/driver/HAL_EEPROM/STM32_HAL_EEPROM.o
 .text          0x0000000008000564      0x1ba /f29bms/src/driver/HAL_Gpio/STM32_HAL_Gpio.o
                0x0000000008000608                HAL_Gpio_init
                0x000000000800068a                HAL_Gpio_read
                0x00000000080006c8                HAL_Gpio_write
 *fill*         0x000000000800071e        0x2 
 .text          0x0000000008000720     0x159c /f29bms/src/driver/HAL_SlaveChips/STM32_HAL_SlaveChips.o
                0x0000000008000930                LTC6804_rdcv_reg
                0x0000000008000a08                LTC6804_rdcv
                0x0000000008001502                HAL_SlaveChip_Init
                0x0000000008001548                HAL_SlaveChips_get_all_cell_data
                0x000000000800180c                HAL_SlaveChips_get_all_tm_readings
                0x00000000080019d0                HAL_SlaveChips_request_cell_drain_state
 .text          0x0000000008001cbc       0x3c /f29bms/src/driver/HAL_Watchdog/STM32_HAL_Watchdog.o
                0x0000000008001cbc                HAL_Watchdog_Init
                0x0000000008001ce8                pet
 .text          0x0000000008001cf8      0x158 /f29bms/src/driver/HAL_Spi/STM32_HAL_Spi.o
                0x0000000008001cf8                HAL_Spi_Init
                0x0000000008001d78                HAL_Spi_transmit_and_receive
 .text          0x0000000008001e50       0x88 /f29bms/src/common/counters/STM32_counters.o
                0x0000000008001e50                incr_to_limit
                0x0000000008001e94                decr_to_limit
 .text          0x0000000008001ed8      0x694 /f29bms/libs/stm32libs/STM32F0xx_StdPeriph_Driver/src/stm32f0xx_adc.o
                0x0000000008001ed8                ADC_DeInit
                0x0000000008001f0c                ADC_Init
                0x0000000008001f64                ADC_StructInit
                0x0000000008001f98                ADC_Cmd
                0x0000000008001fd0                ADC_ClockModeConfig
                0x0000000008001fe8                ADC_JitterCmd
                0x0000000008002022                ADC_AutoPowerOffCmd
                0x0000000008002060                ADC_WaitModeCmd
                0x00000000080020a0                ADC_AnalogWatchdogCmd
                0x00000000080020e0                ADC_AnalogWatchdogThresholdsConfig
                0x0000000008002110                ADC_AnalogWatchdogSingleChannelConfig
                0x0000000008002148                ADC_AnalogWatchdogSingleChannelCmd
                0x0000000008002188                ADC_TempSensorCmd
                0x00000000080021c8                ADC_VrefintCmd
                0x0000000008002208                ADC_VbatCmd
                0x0000000008002248                ADC_ChannelConfig
                0x0000000008002282                ADC_ContinuousModeCmd
                0x00000000080022c0                ADC_DiscModeCmd
                0x0000000008002300                ADC_OverrunModeCmd
                0x0000000008002340                ADC_GetCalibrationFactor
                0x00000000080023a0                ADC_StopOfConversion
                0x00000000080023bc                ADC_StartOfConversion
                0x00000000080023d8                ADC_GetConversionValue
                0x00000000080023ee                ADC_DMACmd
                0x0000000008002428                ADC_DMARequestModeConfig
                0x0000000008002454                ADC_ITConfig
                0x000000000800248e                ADC_GetFlagStatus
                0x00000000080024ec                ADC_ClearFlag
                0x0000000008002504                ADC_GetITStatus
                0x0000000008002552                ADC_ClearITPendingBit
 .text          0x000000000800256c     0x1298 /f29bms/libs/stm32libs/STM32F0xx_StdPeriph_Driver/src/stm32f0xx_can.o
                0x000000000800256c                CAN_DeInit
                0x0000000008002594                CAN_Init
                0x0000000008002758                CAN_FilterInit
                0x0000000008002908                CAN_StructInit
                0x000000000800295a                CAN_SlaveStartBank
                0x00000000080029cc                CAN_DBGFreeze
                0x0000000008002a0c                CAN_TTComModeCmd
                0x0000000008002ad4                CAN_Transmit
                0x0000000008002cb0                CAN_TransmitStatus
                0x0000000008002db4                CAN_CancelTransmit
                0x0000000008002e0e                CAN_Receive
                0x0000000008002fb8                CAN_FIFORelease
                0x0000000008002ff0                CAN_MessagePending
                0x000000000800304e                CAN_OperatingModeRequest
                0x0000000008003174                CAN_Sleep
                0x00000000080031b4                CAN_WakeUp
                0x0000000008003218                CAN_GetLastErrorCode
                0x0000000008003244                CAN_GetReceiveErrorCounter
                0x000000000800326a                CAN_GetLSBTransmitErrorCounter
                0x0000000008003290                CAN_ITConfig
                0x00000000080032ca                CAN_GetFlagStatus
                0x00000000080033b8                CAN_ClearFlag
                0x0000000008003428                CAN_GetITStatus
                0x0000000008003678                CAN_ClearITPendingBit
 .text          0x0000000008003804      0x310 /f29bms/libs/stm32libs/STM32F0xx_StdPeriph_Driver/src/stm32f0xx_cec.o
                0x0000000008003804                CEC_DeInit
                0x0000000008003826                CEC_Init
                0x0000000008003884                CEC_StructInit
                0x00000000080038be                CEC_Cmd
                0x00000000080038f8                CEC_ListenModeCmd
                0x0000000008003934                CEC_OwnAddressConfig
                0x000000000800396c                CEC_OwnAddressClear
                0x0000000008003980                CEC_SendData
                0x00000000080039a0                CEC_ReceiveData
                0x00000000080039b4                CEC_StartOfMessage
                0x00000000080039d0                CEC_EndOfMessage
                0x00000000080039ec                CEC_ITConfig
                0x0000000008003a3c                CEC_GetFlagStatus
                0x0000000008003a80                CEC_ClearFlag
                0x0000000008003a9c                CEC_GetITStatus
                0x0000000008003af4                CEC_ClearITPendingBit
 .text          0x0000000008003b14      0x1d0 /f29bms/libs/stm32libs/STM32F0xx_StdPeriph_Driver/src/stm32f0xx_comp.o
                0x0000000008003b14                COMP_DeInit
                0x0000000008003b28                COMP_Init
                0x0000000008003b8c                COMP_StructInit
                0x0000000008003bba                COMP_Cmd
                0x0000000008003c08                COMP_SwitchCmd
                0x0000000008003c44                COMP_GetOutputLevel
                0x0000000008003c7c                COMP_WindowCmd
                0x0000000008003cbc                COMP_LockConfig
 .text          0x0000000008003ce4      0x21c /f29bms/libs/stm32libs/STM32F0xx_StdPeriph_Driver/src/stm32f0xx_crc.o
                0x0000000008003ce4                CRC_DeInit
                0x0000000008003d18                CRC_ResetDR
                0x0000000008003d34                CRC_PolynomialSizeSelect
                0x0000000008003d68                CRC_ReverseInputDataSelect
                0x0000000008003d9c                CRC_ReverseOutputDataCmd
                0x0000000008003dd8                CRC_SetInitRegister
                0x0000000008003df4                CRC_SetPolynomial
                0x0000000008003e10                CRC_CalcCRC
                0x0000000008003e30                CRC_CalcCRC16bits
                0x0000000008003e54                CRC_CalcCRC8bits
                0x0000000008003e78                CRC_CalcBlockCRC
                0x0000000008003eb8                CRC_GetCRC
                0x0000000008003ecc                CRC_SetIDRegister
                0x0000000008003eec                CRC_GetIDRegister
 .text          0x0000000008003f00      0x338 /f29bms/libs/stm32libs/STM32F0xx_StdPeriph_Driver/src/stm32f0xx_crs.o
                0x0000000008003f00                CRS_DeInit
                0x0000000008003f22                CRS_AdjustHSI48CalibrationValue
                0x0000000008003f5c                CRS_FrequencyErrorCounterCmd
                0x0000000008003f98                CRS_AutomaticCalibrationCmd
                0x0000000008003fd4                CRS_SoftwareSynchronizationGenerate
                0x0000000008003ff0                CRS_FrequencyErrorCounterReload
                0x000000000800401c                CRS_FrequencyErrorLimitConfig
                0x0000000008004054                CRS_SynchronizationPrescalerConfig
                0x0000000008004084                CRS_SynchronizationSourceConfig
                0x00000000080040b4                CRS_SynchronizationPolarityConfig
                0x00000000080040e0                CRS_GetReloadValue
                0x00000000080040f8                CRS_GetHSI48CalibrationValue
                0x0000000008004110                CRS_GetFrequencyErrorValue
                0x0000000008004128                CRS_GetFrequencyErrorDirection
                0x0000000008004140                CRS_ITConfig
                0x0000000008004180                CRS_GetFlagStatus
                0x00000000080041a4                CRS_ClearFlag
                0x00000000080041dc                CRS_GetITStatus
                0x0000000008004200                CRS_ClearITPendingBit
 .text          0x0000000008004238      0x444 /f29bms/libs/stm32libs/STM32F0xx_StdPeriph_Driver/src/stm32f0xx_dac.o
                0x0000000008004238                DAC_DeInit
                0x000000000800425a                DAC_Init
                0x00000000080042c0                DAC_StructInit
                0x00000000080042e8                DAC_Cmd
                0x0000000008004330                DAC_SoftwareTriggerCmd
                0x000000000800437c                DAC_DualSoftwareTriggerCmd
                0x00000000080043b8                DAC_WaveGenerationCmd
                0x0000000008004400                DAC_SetChannel1Data
                0x0000000008004434                DAC_SetChannel2Data
                0x0000000008004468                DAC_SetDualChannelData
                0x00000000080044cc                DAC_GetDataOutputValue
                0x00000000080044fc                DAC_DMACmd
                0x0000000008004548                DAC_ITConfig
                0x0000000008004590                DAC_GetFlagStatus
                0x00000000080045d4                DAC_ClearFlag
                0x00000000080045f8                DAC_GetITStatus
                0x0000000008004658                DAC_ClearITPendingBit
 .text          0x000000000800467c       0xec /f29bms/libs/stm32libs/STM32F0xx_StdPeriph_Driver/src/stm32f0xx_dbgmcu.o
                0x000000000800467c                DBGMCU_GetREVID
                0x0000000008004690                DBGMCU_GetDEVID
                0x00000000080046a8                DBGMCU_Config
                0x00000000080046e8                DBGMCU_APB1PeriphConfig
                0x0000000008004728                DBGMCU_APB2PeriphConfig
 .text          0x0000000008004768      0x45c /f29bms/libs/stm32libs/STM32F0xx_StdPeriph_Driver/src/stm32f0xx_dma.o
                0x0000000008004768                DMA_DeInit
                0x00000000080048f0                DMA_Init
                0x000000000800496c                DMA_StructInit
                0x00000000080049be                DMA_Cmd
                0x00000000080049fc                DMA_RemapConfig
                0x0000000008004a3e                DMA_SetCurrDataCounter
                0x0000000008004a5c                DMA_GetCurrDataCounter
                0x0000000008004a72                DMA_ITConfig
                0x0000000008004aac                DMA_GetFlagStatus
                0x0000000008004b08                DMA_ClearFlag
                0x0000000008004b38                DMA_GetITStatus
                0x0000000008004b94                DMA_ClearITPendingBit
 .text          0x0000000008004bc4      0x20c /f29bms/libs/stm32libs/STM32F0xx_StdPeriph_Driver/src/stm32f0xx_exti.o
                0x0000000008004bc4                EXTI_DeInit
                0x0000000008004bf8                EXTI_Init
                0x0000000008004cd8                EXTI_StructInit
                0x0000000008004d00                EXTI_GenerateSWInterrupt
                0x0000000008004d20                EXTI_GetFlagStatus
                0x0000000008004d5c                EXTI_ClearFlag
                0x0000000008004d78                EXTI_GetITStatus
                0x0000000008004db4                EXTI_ClearITPendingBit
 .text          0x0000000008004dd0      0xc80 /f29bms/libs/stm32libs/STM32F0xx_StdPeriph_Driver/src/stm32f0xx_flash.o
                0x0000000008004dd0                FLASH_SetLatency
                0x0000000008004e04                FLASH_PrefetchBufferCmd
                0x0000000008004e40                FLASH_GetPrefetchBufferStatus
                0x0000000008004e74                FLASH_Unlock
                0x0000000008004ea0                FLASH_Lock
                0x0000000008004ebc                FLASH_ErasePage
                0x0000000008004f34                FLASH_EraseAllPages
                0x0000000008004f9c                FLASH_ProgramWord
                0x0000000008005048                FLASH_ProgramHalfWord
                0x00000000080050bc                FLASH_OB_Unlock
                0x00000000080050ec                FLASH_OB_Lock
                0x000000000800510c                FLASH_OB_Launch
                0x0000000008005128                FLASH_OB_Erase
                0x0000000008005200                FLASH_OB_EnableWRP
                0x0000000008005370                FLASH_OB_RDPConfig
                0x0000000008005448                FLASH_OB_UserConfig
                0x00000000080054f4                FLASH_OB_BOOTConfig
                0x000000000800557c                FLASH_OB_BOOT0Config
                0x0000000008005604                FLASH_OB_BOOT0SWConfig
                0x000000000800568c                FLASH_OB_VDDAConfig
                0x0000000008005714                FLASH_OB_SRAMParityConfig
                0x000000000800579c                FLASH_OB_WriteUser
                0x000000000800581c                FLASH_OB_ProgramData
                0x000000000800589c                FLASH_OB_GetUser
                0x00000000080058b4                FLASH_OB_GetWRP
                0x00000000080058c8                FLASH_OB_GetRDP
                0x0000000008005900                FLASH_ITConfig
                0x0000000008005940                FLASH_GetFlagStatus
                0x000000000800597c                FLASH_ClearFlag
                0x0000000008005998                FLASH_GetStatus
                0x00000000080059f4                FLASH_WaitForLastOperation
 .text          0x0000000008005a50      0x484 /f29bms/libs/stm32libs/STM32F0xx_StdPeriph_Driver/src/stm32f0xx_gpio.o
                0x0000000008005a50                GPIO_DeInit
                0x0000000008005b40                GPIO_Init
                0x0000000008005c68                GPIO_StructInit
                0x0000000008005c9c                GPIO_PinLockConfig
                0x0000000008005ce2                GPIO_ReadInputDataBit
                0x0000000008005d28                GPIO_ReadInputData
                0x0000000008005d3e                GPIO_ReadOutputDataBit
                0x0000000008005d84                GPIO_ReadOutputData
                0x0000000008005d9a                GPIO_SetBits
                0x0000000008005db8                GPIO_ResetBits
                0x0000000008005dd6                GPIO_WriteBit
                0x0000000008005e10                GPIO_Write
                0x0000000008005e2e                GPIO_PinAFConfig
 .text          0x0000000008005ed4      0xa8c /f29bms/libs/stm32libs/STM32F0xx_StdPeriph_Driver/src/stm32f0xx_i2c.o
                0x0000000008005ed4                I2C_DeInit
                0x0000000008005f24                I2C_Init
                0x0000000008005ff4                I2C_StructInit
                0x0000000008006030                I2C_Cmd
                0x000000000800606a                I2C_SoftwareResetCmd
                0x0000000008006098                I2C_ITConfig
                0x00000000080060d2                I2C_StretchClockCmd
                0x0000000008006110                I2C_StopModeCmd
                0x0000000008006150                I2C_DualAddressCmd
                0x0000000008006190                I2C_OwnAddress2Config
                0x00000000080061e8                I2C_GeneralCallCmd
                0x0000000008006228                I2C_SlaveByteControlCmd
                0x0000000008006268                I2C_SlaveAddressConfig
                0x00000000080062a4                I2C_10BitAddressingModeCmd
                0x00000000080062e4                I2C_AutoEndCmd
                0x0000000008006324                I2C_ReloadCmd
                0x0000000008006364                I2C_NumberOfBytesConfig
                0x00000000080063a8                I2C_MasterRequestConfig
                0x00000000080063e8                I2C_GenerateSTART
                0x0000000008006428                I2C_GenerateSTOP
                0x0000000008006468                I2C_10BitAddressHeaderCmd
                0x00000000080064a8                I2C_AcknowledgeConfig
                0x00000000080064e8                I2C_GetAddressMatched
                0x0000000008006506                I2C_GetTransferDirection
                0x000000000800654c                I2C_TransferHandling
                0x00000000080065b4                I2C_SMBusAlertCmd
                0x00000000080065f4                I2C_ClockTimeoutCmd
                0x0000000008006634                I2C_ExtendedClockTimeoutCmd
                0x000000000800666e                I2C_IdleClockTimeoutCmd
                0x00000000080066ac                I2C_TimeoutAConfig
                0x00000000080066e8                I2C_TimeoutBConfig
                0x0000000008006730                I2C_CalculatePEC
                0x0000000008006770                I2C_PECRequestCmd
                0x00000000080067b0                I2C_GetPEC
                0x00000000080067c6                I2C_ReadRegister
                0x00000000080067f2                I2C_SendData
                0x0000000008006810                I2C_ReceiveData
                0x0000000008006826                I2C_DMACmd
                0x0000000008006860                I2C_GetFlagStatus
                0x00000000080068a8                I2C_ClearFlag
                0x00000000080068c0                I2C_GetITStatus
                0x0000000008006948                I2C_ClearITPendingBit
 .text          0x0000000008006960       0xf4 /f29bms/libs/stm32libs/STM32F0xx_StdPeriph_Driver/src/stm32f0xx_iwdg.o
                0x0000000008006960                IWDG_WriteAccessCmd
                0x0000000008006980                IWDG_SetPrescaler
                0x00000000080069a0                IWDG_SetReload
                0x00000000080069c0                IWDG_ReloadCounter
                0x00000000080069d8                IWDG_SetWindowValue
                0x00000000080069f8                IWDG_Enable
                0x0000000008006a10                IWDG_GetFlagStatus
 .text          0x0000000008006a54      0x128 /f29bms/libs/stm32libs/STM32F0xx_StdPeriph_Driver/src/stm32f0xx_misc.o
                0x0000000008006a54                NVIC_Init
                0x0000000008006b00                NVIC_SystemLPConfig
                0x0000000008006b48                SysTick_CLKSourceConfig
 .text          0x0000000008006b7c      0x26c /f29bms/libs/stm32libs/STM32F0xx_StdPeriph_Driver/src/stm32f0xx_pwr.o
                0x0000000008006b7c                PWR_DeInit
                0x0000000008006b9e                PWR_BackupAccessCmd
                0x0000000008006be0                PWR_PVDLevelConfig
                0x0000000008006c14                PWR_PVDCmd
                0x0000000008006c50                PWR_WakeUpPinCmd
                0x0000000008006c90                PWR_EnterSleepMode
                0x0000000008006ccc                PWR_EnterSTOPMode
                0x0000000008006d58                PWR_EnterSTANDBYMode
                0x0000000008006d88                PWR_GetFlagStatus
                0x0000000008006dc4                PWR_ClearFlag
 .text          0x0000000008006de8      0xcc4 /f29bms/libs/stm32libs/STM32F0xx_StdPeriph_Driver/src/stm32f0xx_rcc.o
                0x0000000008006de8                RCC_DeInit
                0x0000000008006e70                RCC_HSEConfig
                0x0000000008006e98                RCC_WaitForHSEStartUp
                0x0000000008006ef6                RCC_AdjustHSICalibrationValue
                0x0000000008006f34                RCC_HSICmd
                0x0000000008006f70                RCC_AdjustHSI14CalibrationValue
                0x0000000008006fac                RCC_HSI14Cmd
                0x0000000008006fe8                RCC_HSI14ADCRequestCmd
                0x0000000008007024                RCC_LSEConfig
                0x000000000800705c                RCC_LSEDriveConfig
                0x0000000008007088                RCC_LSICmd
                0x00000000080070c4                RCC_PLLConfig
                0x00000000080070fc                RCC_PLLCmd
                0x000000000800713c                RCC_HSI48Cmd
                0x000000000800717c                RCC_PREDIV1Config
                0x00000000080071b0                RCC_ClockSecuritySystemCmd
                0x00000000080071f0                RCC_MCOConfig
                0x0000000008007234                RCC_SYSCLKConfig
                0x0000000008007268                RCC_GetSYSCLKSource
                0x0000000008007284                RCC_HCLKConfig
                0x00000000080072b8                RCC_PCLKConfig
                0x00000000080072f0                RCC_ADCCLKConfig
                0x0000000008007344                RCC_CECCLKConfig
                0x0000000008007370                RCC_I2CCLKConfig
                0x000000000800739c                RCC_USARTCLKConfig
                0x0000000008007404                RCC_USBCLKConfig
                0x0000000008007430                RCC_GetClocksFreq
                0x0000000008007728                RCC_RTCCLKConfig
                0x0000000008007748                RCC_RTCCLKCmd
                0x0000000008007788                RCC_BackupResetCmd
                0x00000000080077c8                RCC_AHBPeriphClockCmd
                0x0000000008007808                RCC_APB2PeriphClockCmd
                0x0000000008007848                RCC_APB1PeriphClockCmd
                0x0000000008007888                RCC_AHBPeriphResetCmd
                0x00000000080078c8                RCC_APB2PeriphResetCmd
                0x0000000008007908                RCC_APB1PeriphResetCmd
                0x0000000008007948                RCC_ITConfig
                0x0000000008007998                RCC_GetFlagStatus
                0x0000000008007a2c                RCC_ClearFlag
                0x0000000008007a48                RCC_GetITStatus
                0x0000000008007a8c                RCC_ClearITPendingBit
 .text          0x0000000008007aac     0x1470 /f29bms/libs/stm32libs/STM32F0xx_StdPeriph_Driver/src/stm32f0xx_rtc.o
                0x0000000008007aac                RTC_DeInit
                0x0000000008007b54                RTC_Init
                0x0000000008007bd8                RTC_StructInit
                0x0000000008007bfa                RTC_WriteProtectionCmd
                0x0000000008007c30                RTC_EnterInitMode
                0x0000000008007cb0                RTC_ExitInitMode
                0x0000000008007ccc                RTC_WaitForSynchro
                0x0000000008007d60                RTC_RefClockCmd
                0x0000000008007dd8                RTC_BypassShadowCmd
                0x0000000008007e24                RTC_SetTime
                0x0000000008007f48                RTC_TimeStructInit
                0x0000000008007f70                RTC_GetTime
                0x0000000008008014                RTC_GetSubSecond
                0x0000000008008038                RTC_SetDate
                0x0000000008008168                RTC_DateStructInit
                0x0000000008008190                RTC_GetDate
                0x0000000008008234                RTC_SetAlarm
                0x0000000008008358                RTC_AlarmStructInit
                0x0000000008008392                RTC_GetAlarm
                0x000000000800846c                RTC_AlarmCmd
                0x0000000008008518                RTC_AlarmSubSecondConfig
                0x000000000800855c                RTC_GetAlarmSubSecond
                0x0000000008008580                RTC_WakeUpClockConfig
                0x00000000080085c0                RTC_SetWakeUpCounter
                0x00000000080085ec                RTC_GetWakeUpCounter
                0x0000000008008604                RTC_WakeUpCmd
                0x00000000080086b0                RTC_DayLightSavingConfig
                0x00000000080086f8                RTC_GetStoreOperation
                0x0000000008008710                RTC_OutputConfig
                0x0000000008008758                RTC_CalibOutputCmd
                0x00000000080087ac                RTC_CalibOutputConfig
                0x00000000080087f0                RTC_SmoothCalibConfig
                0x0000000008008884                RTC_TimeStampCmd
                0x00000000080088e8                RTC_GetTimeStamp
                0x0000000008008a08                RTC_GetTimeStampSubSecond
                0x0000000008008a1c                RTC_TamperTriggerConfig
                0x0000000008008a58                RTC_TamperCmd
                0x0000000008008a98                RTC_TamperFilterConfig
                0x0000000008008ac8                RTC_TamperSamplingFreqConfig
                0x0000000008008af8                RTC_TamperPinsPrechargeDuration
                0x0000000008008b28                RTC_TimeStampOnTamperDetectionCmd
                0x0000000008008b64                RTC_TamperPullUpCmd
                0x0000000008008ba4                RTC_WriteBackupRegister
                0x0000000008008bd4                RTC_ReadBackupRegister
                0x0000000008008c00                RTC_OutputTypeConfig
                0x0000000008008c30                RTC_SynchroShiftConfig
                0x0000000008008cdc                RTC_ITConfig
                0x0000000008008d58                RTC_GetFlagStatus
                0x0000000008008da4                RTC_ClearFlag
                0x0000000008008dd8                RTC_GetITStatus
                0x0000000008008e54                RTC_ClearITPendingBit
 .text          0x0000000008008f1c      0x9a4 /f29bms/libs/stm32libs/STM32F0xx_StdPeriph_Driver/src/stm32f0xx_spi.o
                0x0000000008008f1c                SPI_I2S_DeInit
                0x0000000008008f78                SPI_StructInit
                0x0000000008008fc0                SPI_Init
                0x00000000080090a4                I2S_StructInit
                0x00000000080090d8                I2S_Init
                0x0000000008009288                SPI_Cmd
                0x00000000080092c8                SPI_TIModeCmd
                0x0000000008009308                I2S_Cmd
                0x0000000008009350                SPI_DataSizeConfig
                0x000000000800939c                SPI_RxFIFOThresholdConfig
                0x00000000080093d8                SPI_BiDirectionalLineConfig
                0x0000000008009424                SPI_NSSInternalSoftwareConfig
                0x0000000008009470                SPI_SSOutputCmd
                0x00000000080094b0                SPI_NSSPulseModeCmd
                0x00000000080094f0                SPI_SendData8
                0x000000000800951c                SPI_I2S_SendData16
                0x000000000800953a                SPI_ReceiveData8
                0x000000000800955e                SPI_I2S_ReceiveData16
                0x0000000008009574                SPI_CRCLengthConfig
                0x00000000080095b0                SPI_CalculateCRC
                0x00000000080095f8                SPI_TransmitCRC
                0x000000000800961a                SPI_GetCRC
                0x000000000800965a                SPI_GetCRCPolynomial
                0x0000000008009670                SPI_I2S_DMACmd
                0x00000000080096c2                SPI_LastDMATransferCmd
                0x0000000008009700                SPI_I2S_ITConfig
                0x000000000800977c                SPI_GetTransmissionFIFOStatus
                0x000000000800979a                SPI_GetReceptionFIFOStatus
                0x00000000080097b8                SPI_I2S_GetFlagStatus
                0x00000000080097fe                SPI_I2S_ClearFlag
                0x0000000008009820                SPI_I2S_GetITStatus
 .text          0x00000000080098c0      0x258 /f29bms/libs/stm32libs/STM32F0xx_StdPeriph_Driver/src/stm32f0xx_syscfg.o
                0x00000000080098c0                SYSCFG_DeInit
                0x0000000008009900                SYSCFG_MemoryRemapConfig
                0x0000000008009934                SYSCFG_DMAChannelRemapConfig
                0x0000000008009974                SYSCFG_I2CFastModePlusConfig
                0x00000000080099b4                SYSCFG_IRDAEnvSelection
                0x00000000080099e0                SYSCFG_EXTILineConfig
                0x0000000008009a70                SYSCFG_GetPendingIT
                0x0000000008009a98                SYSCFG_BreakConfig
                0x0000000008009ab8                SYSCFG_GetFlagStatus
                0x0000000008009af8                SYSCFG_ClearFlag
 .text          0x0000000008009b18     0x216c /f29bms/libs/stm32libs/STM32F0xx_StdPeriph_Driver/src/stm32f0xx_tim.o
                0x0000000008009b18                TIM_DeInit
                0x0000000008009c5c                TIM_TimeBaseInit
                0x0000000008009d40                TIM_TimeBaseStructInit
                0x0000000008009d70                TIM_PrescalerConfig
                0x0000000008009da0                TIM_CounterModeConfig
                0x0000000008009de8                TIM_SetCounter
                0x0000000008009e00                TIM_SetAutoreload
                0x0000000008009e18                TIM_GetCounter
                0x0000000008009e2c                TIM_GetPrescaler
                0x0000000008009e42                TIM_UpdateDisableConfig
                0x0000000008009e82                TIM_UpdateRequestConfig
                0x0000000008009ec2                TIM_ARRPreloadConfig
                0x0000000008009f02                TIM_SelectOnePulseMode
                0x0000000008009f3a                TIM_SetClockDivision
                0x0000000008009f78                TIM_Cmd
                0x0000000008009fb8                TIM_BDTRConfig
                0x000000000800a004                TIM_BDTRStructInit
                0x000000000800a03e                TIM_CtrlPWMOutputs
                0x000000000800a08c                TIM_OC1Init
                0x000000000800a1fc                TIM_OC2Init
                0x000000000800a380                TIM_OC3Init
                0x000000000800a4f0                TIM_OC4Init
                0x000000000800a604                TIM_OCStructInit
                0x000000000800a644                TIM_SelectOCxM
                0x000000000800a714                TIM_SetCompare1
                0x000000000800a72c                TIM_SetCompare2
                0x000000000800a744                TIM_SetCompare3
                0x000000000800a75c                TIM_SetCompare4
                0x000000000800a774                TIM_ForcedOC1Config
                0x000000000800a7bc                TIM_ForcedOC2Config
                0x000000000800a80c                TIM_ForcedOC3Config
                0x000000000800a854                TIM_ForcedOC4Config
                0x000000000800a8a4                TIM_CCPreloadControl
                0x000000000800a8e4                TIM_OC1PreloadConfig
                0x000000000800a92c                TIM_OC2PreloadConfig
                0x000000000800a97c                TIM_OC3PreloadConfig
                0x000000000800a9c4                TIM_OC4PreloadConfig
                0x000000000800aa14                TIM_OC1FastConfig
                0x000000000800aa5c                TIM_OC2FastConfig
                0x000000000800aaac                TIM_OC3FastConfig
                0x000000000800aaf4                TIM_OC4FastConfig
                0x000000000800ab44                TIM_ClearOC1Ref
                0x000000000800ab8c                TIM_ClearOC2Ref
                0x000000000800abd8                TIM_ClearOC3Ref
                0x000000000800ac20                TIM_ClearOC4Ref
                0x000000000800ac6c                TIM_OC1PolarityConfig
                0x000000000800acb4                TIM_OC1NPolarityConfig
                0x000000000800acfc                TIM_OC2PolarityConfig
                0x000000000800ad48                TIM_OC2NPolarityConfig
                0x000000000800ad94                TIM_OC3PolarityConfig
                0x000000000800ade4                TIM_OC3NPolarityConfig
                0x000000000800ae34                TIM_OC4PolarityConfig
                0x000000000800ae84                TIM_SelectOCREFClear
                0x000000000800aebc                TIM_CCxCmd
                0x000000000800af22                TIM_CCxNCmd
                0x000000000800af88                TIM_SelectCOM
                0x000000000800afc8                TIM_ICInit
                0x000000000800b078                TIM_ICStructInit
                0x000000000800b0a6                TIM_PWMIConfig
                0x000000000800b190                TIM_GetCapture1
                0x000000000800b1a4                TIM_GetCapture2
                0x000000000800b1b8                TIM_GetCapture3
                0x000000000800b1cc                TIM_GetCapture4
                0x000000000800b1e0                TIM_SetIC1Prescaler
                0x000000000800b218                TIM_SetIC2Prescaler
                0x000000000800b258                TIM_SetIC3Prescaler
                0x000000000800b290                TIM_SetIC4Prescaler
                0x000000000800b2d0                TIM_ITConfig
                0x000000000800b322                TIM_GenerateEvent
                0x000000000800b340                TIM_GetFlagStatus
                0x000000000800b386                TIM_ClearFlag
                0x000000000800b3a8                TIM_GetITStatus
                0x000000000800b41c                TIM_ClearITPendingBit
                0x000000000800b43e                TIM_DMAConfig
                0x000000000800b470                TIM_DMACmd
                0x000000000800b4c2                TIM_SelectCCDMA
                0x000000000800b502                TIM_InternalClockConfig
                0x000000000800b522                TIM_ITRxExternalClockConfig
                0x000000000800b556                TIM_TIxExternalClockConfig
                0x000000000800b5d2                TIM_ETRClockMode1Config
                0x000000000800b65e                TIM_ETRClockMode2Config
                0x000000000800b6b0                TIM_SelectInputTrigger
                0x000000000800b6f8                TIM_SelectOutputTrigger
                0x000000000800b730                TIM_SelectSlaveMode
                0x000000000800b768                TIM_SelectMasterSlaveMode
                0x000000000800b7a0                TIM_ETRConfig
                0x000000000800b812                TIM_EncoderInterfaceConfig
                0x000000000800b8e8                TIM_SelectHallSensor
                0x000000000800b928                TIM_RemapConfig
 .text          0x000000000800bc84      0xd58 /f29bms/libs/stm32libs/STM32F0xx_StdPeriph_Driver/src/stm32f0xx_usart.o
                0x000000000800bc84                USART_DeInit
                0x000000000800bdac                USART_Init
                0x000000000800bf34                USART_StructInit
                0x000000000800bf6a                USART_ClockInit
                0x000000000800bfb4                USART_ClockStructInit
                0x000000000800bfdc                USART_Cmd
                0x000000000800c016                USART_DirectionModeCmd
                0x000000000800c050                USART_OverSampling8Cmd
                0x000000000800c090                USART_OneBitMethodCmd
                0x000000000800c0d0                USART_MSBFirstCmd
                0x000000000800c110                USART_DataInvCmd
                0x000000000800c150                USART_InvPinCmd
                0x000000000800c18a                USART_SWAPPinCmd
                0x000000000800c1c8                USART_ReceiverTimeOutCmd
                0x000000000800c208                USART_SetReceiverTimeOut
                0x000000000800c232                USART_SetPrescaler
                0x000000000800c26c                USART_STOPModeCmd
                0x000000000800c2a6                USART_StopModeWakeUpSourceConfig
                0x000000000800c2d4                USART_AutoBaudRateCmd
                0x000000000800c314                USART_AutoBaudRateConfig
                0x000000000800c344                USART_SendData
                0x000000000800c368                USART_ReceiveData
                0x000000000800c384                USART_SetAddress
                0x000000000800c3b6                USART_MuteModeCmd
                0x000000000800c3f4                USART_MuteModeWakeUpConfig
                0x000000000800c424                USART_AddressDetectionConfig
                0x000000000800c450                USART_LINBreakDetectLengthConfig
                0x000000000800c47c                USART_LINCmd
                0x000000000800c4bc                USART_HalfDuplexCmd
                0x000000000800c4f6                USART_SetGuardTime
                0x000000000800c534                USART_SmartCardCmd
                0x000000000800c56e                USART_SmartCardNACKCmd
                0x000000000800c5a8                USART_SetAutoRetryCount
                0x000000000800c5e0                USART_SetBlockLength
                0x000000000800c612                USART_IrDAConfig
                0x000000000800c63e                USART_IrDACmd
                0x000000000800c678                USART_DECmd
                0x000000000800c6b8                USART_DEPolarityConfig
                0x000000000800c6e8                USART_SetDEAssertionTime
                0x000000000800c718                USART_SetDEDeassertionTime
                0x000000000800c748                USART_DMACmd
                0x000000000800c782                USART_DMAReceptionErrorConfig
                0x000000000800c7b0                USART_ITConfig
                0x000000000800c834                USART_RequestCmd
                0x000000000800c87c                USART_OverrunDetectionConfig
                0x000000000800c8ac                USART_GetFlagStatus
                0x000000000800c8e6                USART_ClearFlag
                0x000000000800c8fe                USART_GetITStatus
                0x000000000800c9ac                USART_ClearITPendingBit
 .text          0x000000000800c9dc      0x144 /f29bms/libs/stm32libs/STM32F0xx_StdPeriph_Driver/src/stm32f0xx_wwdg.o
                0x000000000800c9dc                WWDG_DeInit
                0x000000000800c9fe                WWDG_SetPrescaler
                0x000000000800ca34                WWDG_SetWindowValue
                0x000000000800ca70                WWDG_EnableIT
                0x000000000800ca8c                WWDG_SetCounter
                0x000000000800cab0                WWDG_Enable
                0x000000000800cad8                WWDG_GetFlagStatus
                0x000000000800cb0c                WWDG_ClearFlag
 .text          0x000000000800cb20      0x258 /f29bms/libs/stm32libs/CMSIS/Device/ST/STM32F0xx/Source/Templates/system_stm32f0xx.o
                0x000000000800cb20                SystemInit
                0x000000000800cbac                SystemCoreClockUpdate
 .text          0x000000000800cd78       0x14 /f29bms/libs/stm32libs/CMSIS/Device/ST/STM32F0xx/Source/Templates/gcc_ride7/startup_stm32f0xx.o
 .text          0x000000000800cd8c     0xaed8 /f29bms/src/app/CAN/STM32_f29bms_dbc.o
                0x000000000800d1e6                f29bms_dbc_bms_status_pack
                0x000000000800d276                f29bms_dbc_bms_status_unpack
                0x000000000800d2de                f29bms_dbc_bms_status_bms_status_soc_encode
                0x000000000800d2fc                f29bms_dbc_bms_status_bms_status_soc_decode
                0x000000000800d320                f29bms_dbc_bms_status_bms_status_soc_is_in_range
                0x000000000800d342                f29bms_dbc_bms_status_bms_status_soc_raw_encode
                0x000000000800d360                f29bms_dbc_bms_status_bms_status_soc_raw_decode
                0x000000000800d384                f29bms_dbc_bms_status_bms_status_soc_raw_is_in_range
                0x000000000800d3a6                f29bms_dbc_bms_status_bms_status_charge_state_encode
                0x000000000800d3c4                f29bms_dbc_bms_status_bms_status_charge_state_decode
                0x000000000800d3e8                f29bms_dbc_bms_status_bms_status_charge_state_is_in_range
                0x000000000800d40a                f29bms_dbc_bms_fault_vector_pack
                0x000000000800d58e                f29bms_dbc_bms_fault_vector_unpack
                0x000000000800d6a8                f29bms_dbc_bms_fault_vector_bms_fault_vector_slave_comm_cells_encode
                0x000000000800d6c6                f29bms_dbc_bms_fault_vector_bms_fault_vector_slave_comm_cells_decode
                0x000000000800d6ea                f29bms_dbc_bms_fault_vector_bms_fault_vector_slave_comm_cells_is_in_range
                0x000000000800d70c                f29bms_dbc_bms_fault_vector_bms_fault_vector_slave_comm_temps_encode
                0x000000000800d72a                f29bms_dbc_bms_fault_vector_bms_fault_vector_slave_comm_temps_decode
                0x000000000800d74e                f29bms_dbc_bms_fault_vector_bms_fault_vector_slave_comm_temps_is_in_range
                0x000000000800d770                f29bms_dbc_bms_fault_vector_bms_fault_vector_slave_comm_drain_request_encode
                0x000000000800d78e                f29bms_dbc_bms_fault_vector_bms_fault_vector_slave_comm_drain_request_decode
                0x000000000800d7b2                f29bms_dbc_bms_fault_vector_bms_fault_vector_slave_comm_drain_request_is_in_range
                0x000000000800d7d4                f29bms_dbc_bms_fault_vector_bms_fault_vector_current_sensor_comm_encode
                0x000000000800d7f2                f29bms_dbc_bms_fault_vector_bms_fault_vector_current_sensor_comm_decode
                0x000000000800d816                f29bms_dbc_bms_fault_vector_bms_fault_vector_current_sensor_comm_is_in_range
                0x000000000800d838                f29bms_dbc_bms_fault_vector_bms_fault_vector_over_current_encode
                0x000000000800d856                f29bms_dbc_bms_fault_vector_bms_fault_vector_over_current_decode
                0x000000000800d87a                f29bms_dbc_bms_fault_vector_bms_fault_vector_over_current_is_in_range
                0x000000000800d89c                f29bms_dbc_bms_fault_vector_bms_fault_vector_cell_voltage_irrational_encode
                0x000000000800d8ba                f29bms_dbc_bms_fault_vector_bms_fault_vector_cell_voltage_irrational_decode
                0x000000000800d8de                f29bms_dbc_bms_fault_vector_bms_fault_vector_cell_voltage_irrational_is_in_range
                0x000000000800d900                f29bms_dbc_bms_fault_vector_bms_fault_vector_cell_voltage_diff_encode
                0x000000000800d91e                f29bms_dbc_bms_fault_vector_bms_fault_vector_cell_voltage_diff_decode
                0x000000000800d942                f29bms_dbc_bms_fault_vector_bms_fault_vector_cell_voltage_diff_is_in_range
                0x000000000800d964                f29bms_dbc_bms_fault_vector_bms_fault_vector_out_of_juice_encode
                0x000000000800d982                f29bms_dbc_bms_fault_vector_bms_fault_vector_out_of_juice_decode
                0x000000000800d9a6                f29bms_dbc_bms_fault_vector_bms_fault_vector_out_of_juice_is_in_range
                0x000000000800d9c8                f29bms_dbc_bms_fault_vector_bms_fault_vector_temperature_irrational_encode
                0x000000000800d9e6                f29bms_dbc_bms_fault_vector_bms_fault_vector_temperature_irrational_decode
                0x000000000800da0a                f29bms_dbc_bms_fault_vector_bms_fault_vector_temperature_irrational_is_in_range
                0x000000000800da2c                f29bms_dbc_bms_fault_vector_bms_fault_vector_over_temperature_encode
                0x000000000800da4a                f29bms_dbc_bms_fault_vector_bms_fault_vector_over_temperature_decode
                0x000000000800da6e                f29bms_dbc_bms_fault_vector_bms_fault_vector_over_temperature_is_in_range
                0x000000000800da90                f29bms_dbc_bms_fault_vector_bms_fault_vector_drain_failure_encode
                0x000000000800daae                f29bms_dbc_bms_fault_vector_bms_fault_vector_drain_failure_decode
                0x000000000800dad2                f29bms_dbc_bms_fault_vector_bms_fault_vector_drain_failure_is_in_range
                0x000000000800daf4                f29bms_dbc_bms_fault_alert_pack
                0x000000000800dedc                f29bms_dbc_bms_fault_alert_unpack
                0x000000000800e224                f29bms_dbc_bms_fault_alert_bms_fault_alert_code_encode
                0x000000000800e242                f29bms_dbc_bms_fault_alert_bms_fault_alert_code_decode
                0x000000000800e266                f29bms_dbc_bms_fault_alert_bms_fault_alert_code_is_in_range
                0x000000000800e288                f29bms_dbc_bms_fault_alert_bms_fault_alert_cell_comm_slave_board_num_encode
                0x000000000800e2a6                f29bms_dbc_bms_fault_alert_bms_fault_alert_cell_comm_slave_board_num_decode
                0x000000000800e2ca                f29bms_dbc_bms_fault_alert_bms_fault_alert_cell_comm_slave_board_num_is_in_range
                0x000000000800e2e0                f29bms_dbc_bms_fault_alert_bms_fault_alert_temp_comm_slave_board_num_encode
                0x000000000800e2fe                f29bms_dbc_bms_fault_alert_bms_fault_alert_temp_comm_slave_board_num_decode
                0x000000000800e322                f29bms_dbc_bms_fault_alert_bms_fault_alert_temp_comm_slave_board_num_is_in_range
                0x000000000800e338                f29bms_dbc_bms_fault_alert_bms_fault_alert_drain_comm_slave_board_num_encode
                0x000000000800e356                f29bms_dbc_bms_fault_alert_bms_fault_alert_drain_comm_slave_board_num_decode
                0x000000000800e37a                f29bms_dbc_bms_fault_alert_bms_fault_alert_drain_comm_slave_board_num_is_in_range
                0x000000000800e390                f29bms_dbc_bms_fault_alert_bms_fault_alert_adc_error_code_encode
                0x000000000800e3ae                f29bms_dbc_bms_fault_alert_bms_fault_alert_adc_error_code_decode
                0x000000000800e3d2                f29bms_dbc_bms_fault_alert_bms_fault_alert_adc_error_code_is_in_range
                0x000000000800e3e8                f29bms_dbc_bms_fault_alert_bms_fault_alert_current_encode
                0x000000000800e41c                f29bms_dbc_bms_fault_alert_bms_fault_alert_current_decode
                0x000000000800e448                f29bms_dbc_bms_fault_alert_bms_fault_alert_current_is_in_range
                0x000000000800e468                f29bms_dbc_bms_fault_alert_bms_fault_alert_irrational_voltage_encode
                0x000000000800e4a0                f29bms_dbc_bms_fault_alert_bms_fault_alert_irrational_voltage_decode
                0x000000000800e4d4                f29bms_dbc_bms_fault_alert_bms_fault_alert_irrational_voltage_is_in_range
                0x000000000800e4f8                f29bms_dbc_bms_fault_alert_bms_fault_alert_voltage_diff_encode
                0x000000000800e530                f29bms_dbc_bms_fault_alert_bms_fault_alert_voltage_diff_decode
                0x000000000800e564                f29bms_dbc_bms_fault_alert_bms_fault_alert_voltage_diff_is_in_range
                0x000000000800e588                f29bms_dbc_bms_fault_alert_bms_fault_alert_lowest_cell_voltage_encode
                0x000000000800e5c0                f29bms_dbc_bms_fault_alert_bms_fault_alert_lowest_cell_voltage_decode
                0x000000000800e5f4                f29bms_dbc_bms_fault_alert_bms_fault_alert_lowest_cell_voltage_is_in_range
                0x000000000800e618                f29bms_dbc_bms_fault_alert_bms_fault_alert_irrational_temperature_encode
                0x000000000800e650                f29bms_dbc_bms_fault_alert_bms_fault_alert_irrational_temperature_decode
                0x000000000800e684                f29bms_dbc_bms_fault_alert_bms_fault_alert_irrational_temperature_is_in_range
                0x000000000800e6a6                f29bms_dbc_bms_fault_alert_bms_fault_alert_over_temperature_encode
                0x000000000800e6dc                f29bms_dbc_bms_fault_alert_bms_fault_alert_over_temperature_decode
                0x000000000800e710                f29bms_dbc_bms_fault_alert_bms_fault_alert_over_temperature_is_in_range
                0x000000000800e732                f29bms_dbc_bms_fault_alert_bms_fault_alert_failed_drain_cell_encode
                0x000000000800e750                f29bms_dbc_bms_fault_alert_bms_fault_alert_failed_drain_cell_decode
                0x000000000800e774                f29bms_dbc_bms_fault_alert_bms_fault_alert_failed_drain_cell_is_in_range
                0x000000000800e78a                f29bms_dbc_bms_voltages_pack
                0x00000000080100fa                f29bms_dbc_bms_voltages_unpack
                0x0000000008011694                f29bms_dbc_bms_voltages_bms_voltages_mux_encode
                0x00000000080116b2                f29bms_dbc_bms_voltages_bms_voltages_mux_decode
                0x00000000080116d6                f29bms_dbc_bms_voltages_bms_voltages_mux_is_in_range
                0x00000000080116ec                f29bms_dbc_bms_voltages_bms_voltages_cell0_encode
                0x0000000008011724                f29bms_dbc_bms_voltages_bms_voltages_cell0_decode
                0x0000000008011758                f29bms_dbc_bms_voltages_bms_voltages_cell0_is_in_range
                0x000000000801177c                f29bms_dbc_bms_voltages_bms_voltages_cell6_encode
                0x00000000080117b4                f29bms_dbc_bms_voltages_bms_voltages_cell6_decode
                0x00000000080117e8                f29bms_dbc_bms_voltages_bms_voltages_cell6_is_in_range
                0x000000000801180c                f29bms_dbc_bms_voltages_bms_voltages_cell12_encode
                0x0000000008011844                f29bms_dbc_bms_voltages_bms_voltages_cell12_decode
                0x0000000008011878                f29bms_dbc_bms_voltages_bms_voltages_cell12_is_in_range
                0x000000000801189c                f29bms_dbc_bms_voltages_bms_voltages_cell18_encode
                0x00000000080118d4                f29bms_dbc_bms_voltages_bms_voltages_cell18_decode
                0x0000000008011908                f29bms_dbc_bms_voltages_bms_voltages_cell18_is_in_range
                0x000000000801192c                f29bms_dbc_bms_voltages_bms_voltages_cell24_encode
                0x0000000008011964                f29bms_dbc_bms_voltages_bms_voltages_cell24_decode
                0x0000000008011998                f29bms_dbc_bms_voltages_bms_voltages_cell24_is_in_range
                0x00000000080119bc                f29bms_dbc_bms_voltages_bms_voltages_cell30_encode
                0x00000000080119f4                f29bms_dbc_bms_voltages_bms_voltages_cell30_decode
                0x0000000008011a28                f29bms_dbc_bms_voltages_bms_voltages_cell30_is_in_range
                0x0000000008011a4c                f29bms_dbc_bms_voltages_bms_voltages_cell36_encode
                0x0000000008011a84                f29bms_dbc_bms_voltages_bms_voltages_cell36_decode
                0x0000000008011ab8                f29bms_dbc_bms_voltages_bms_voltages_cell36_is_in_range
                0x0000000008011adc                f29bms_dbc_bms_voltages_bms_voltages_cell42_encode
                0x0000000008011b14                f29bms_dbc_bms_voltages_bms_voltages_cell42_decode
                0x0000000008011b48                f29bms_dbc_bms_voltages_bms_voltages_cell42_is_in_range
                0x0000000008011b6c                f29bms_dbc_bms_voltages_bms_voltages_cell48_encode
                0x0000000008011ba4                f29bms_dbc_bms_voltages_bms_voltages_cell48_decode
                0x0000000008011bd8                f29bms_dbc_bms_voltages_bms_voltages_cell48_is_in_range
                0x0000000008011bfc                f29bms_dbc_bms_voltages_bms_voltages_cell54_encode
                0x0000000008011c34                f29bms_dbc_bms_voltages_bms_voltages_cell54_decode
                0x0000000008011c68                f29bms_dbc_bms_voltages_bms_voltages_cell54_is_in_range
                0x0000000008011c8c                f29bms_dbc_bms_voltages_bms_voltages_cell60_encode
                0x0000000008011cc4                f29bms_dbc_bms_voltages_bms_voltages_cell60_decode
                0x0000000008011cf8                f29bms_dbc_bms_voltages_bms_voltages_cell60_is_in_range
                0x0000000008011d1c                f29bms_dbc_bms_voltages_bms_voltages_cell66_encode
                0x0000000008011d54                f29bms_dbc_bms_voltages_bms_voltages_cell66_decode
                0x0000000008011d88                f29bms_dbc_bms_voltages_bms_voltages_cell66_is_in_range
                0x0000000008011dac                f29bms_dbc_bms_voltages_bms_voltages_cell72_encode
                0x0000000008011de4                f29bms_dbc_bms_voltages_bms_voltages_cell72_decode
                0x0000000008011e18                f29bms_dbc_bms_voltages_bms_voltages_cell72_is_in_range
                0x0000000008011e3c                f29bms_dbc_bms_voltages_bms_voltages_cell78_encode
                0x0000000008011e74                f29bms_dbc_bms_voltages_bms_voltages_cell78_decode
                0x0000000008011ea8                f29bms_dbc_bms_voltages_bms_voltages_cell78_is_in_range
                0x0000000008011ecc                f29bms_dbc_bms_voltages_bms_voltages_cell84_encode
                0x0000000008011f04                f29bms_dbc_bms_voltages_bms_voltages_cell84_decode
                0x0000000008011f38                f29bms_dbc_bms_voltages_bms_voltages_cell84_is_in_range
                0x0000000008011f5c                f29bms_dbc_bms_voltages_bms_voltages_cell1_encode
                0x0000000008011f94                f29bms_dbc_bms_voltages_bms_voltages_cell1_decode
                0x0000000008011fc8                f29bms_dbc_bms_voltages_bms_voltages_cell1_is_in_range
                0x0000000008011fec                f29bms_dbc_bms_voltages_bms_voltages_cell7_encode
                0x0000000008012024                f29bms_dbc_bms_voltages_bms_voltages_cell7_decode
                0x0000000008012058                f29bms_dbc_bms_voltages_bms_voltages_cell7_is_in_range
                0x000000000801207c                f29bms_dbc_bms_voltages_bms_voltages_cell13_encode
                0x00000000080120b4                f29bms_dbc_bms_voltages_bms_voltages_cell13_decode
                0x00000000080120e8                f29bms_dbc_bms_voltages_bms_voltages_cell13_is_in_range
                0x000000000801210c                f29bms_dbc_bms_voltages_bms_voltages_cell19_encode
                0x0000000008012144                f29bms_dbc_bms_voltages_bms_voltages_cell19_decode
                0x0000000008012178                f29bms_dbc_bms_voltages_bms_voltages_cell19_is_in_range
                0x000000000801219c                f29bms_dbc_bms_voltages_bms_voltages_cell25_encode
                0x00000000080121d4                f29bms_dbc_bms_voltages_bms_voltages_cell25_decode
                0x0000000008012208                f29bms_dbc_bms_voltages_bms_voltages_cell25_is_in_range
                0x000000000801222c                f29bms_dbc_bms_voltages_bms_voltages_cell31_encode
                0x0000000008012264                f29bms_dbc_bms_voltages_bms_voltages_cell31_decode
                0x0000000008012298                f29bms_dbc_bms_voltages_bms_voltages_cell31_is_in_range
                0x00000000080122bc                f29bms_dbc_bms_voltages_bms_voltages_cell37_encode
                0x00000000080122f4                f29bms_dbc_bms_voltages_bms_voltages_cell37_decode
                0x0000000008012328                f29bms_dbc_bms_voltages_bms_voltages_cell37_is_in_range
                0x000000000801234c                f29bms_dbc_bms_voltages_bms_voltages_cell43_encode
                0x0000000008012384                f29bms_dbc_bms_voltages_bms_voltages_cell43_decode
                0x00000000080123b8                f29bms_dbc_bms_voltages_bms_voltages_cell43_is_in_range
                0x00000000080123dc                f29bms_dbc_bms_voltages_bms_voltages_cell49_encode
                0x0000000008012414                f29bms_dbc_bms_voltages_bms_voltages_cell49_decode
                0x0000000008012448                f29bms_dbc_bms_voltages_bms_voltages_cell49_is_in_range
                0x000000000801246c                f29bms_dbc_bms_voltages_bms_voltages_cell55_encode
                0x00000000080124a4                f29bms_dbc_bms_voltages_bms_voltages_cell55_decode
                0x00000000080124d8                f29bms_dbc_bms_voltages_bms_voltages_cell55_is_in_range
                0x00000000080124fc                f29bms_dbc_bms_voltages_bms_voltages_cell61_encode
                0x0000000008012534                f29bms_dbc_bms_voltages_bms_voltages_cell61_decode
                0x0000000008012568                f29bms_dbc_bms_voltages_bms_voltages_cell61_is_in_range
                0x000000000801258c                f29bms_dbc_bms_voltages_bms_voltages_cell67_encode
                0x00000000080125c4                f29bms_dbc_bms_voltages_bms_voltages_cell67_decode
                0x00000000080125f8                f29bms_dbc_bms_voltages_bms_voltages_cell67_is_in_range
                0x000000000801261c                f29bms_dbc_bms_voltages_bms_voltages_cell73_encode
                0x0000000008012654                f29bms_dbc_bms_voltages_bms_voltages_cell73_decode
                0x0000000008012688                f29bms_dbc_bms_voltages_bms_voltages_cell73_is_in_range
                0x00000000080126ac                f29bms_dbc_bms_voltages_bms_voltages_cell79_encode
                0x00000000080126e4                f29bms_dbc_bms_voltages_bms_voltages_cell79_decode
                0x0000000008012718                f29bms_dbc_bms_voltages_bms_voltages_cell79_is_in_range
                0x000000000801273c                f29bms_dbc_bms_voltages_bms_voltages_cell85_encode
                0x0000000008012774                f29bms_dbc_bms_voltages_bms_voltages_cell85_decode
                0x00000000080127a8                f29bms_dbc_bms_voltages_bms_voltages_cell85_is_in_range
                0x00000000080127cc                f29bms_dbc_bms_voltages_bms_voltages_cell2_encode
                0x0000000008012804                f29bms_dbc_bms_voltages_bms_voltages_cell2_decode
                0x0000000008012838                f29bms_dbc_bms_voltages_bms_voltages_cell2_is_in_range
                0x000000000801285c                f29bms_dbc_bms_voltages_bms_voltages_cell8_encode
                0x0000000008012894                f29bms_dbc_bms_voltages_bms_voltages_cell8_decode
                0x00000000080128c8                f29bms_dbc_bms_voltages_bms_voltages_cell8_is_in_range
                0x00000000080128ec                f29bms_dbc_bms_voltages_bms_voltages_cell14_encode
                0x0000000008012924                f29bms_dbc_bms_voltages_bms_voltages_cell14_decode
                0x0000000008012958                f29bms_dbc_bms_voltages_bms_voltages_cell14_is_in_range
                0x000000000801297c                f29bms_dbc_bms_voltages_bms_voltages_cell20_encode
                0x00000000080129b4                f29bms_dbc_bms_voltages_bms_voltages_cell20_decode
                0x00000000080129e8                f29bms_dbc_bms_voltages_bms_voltages_cell20_is_in_range
                0x0000000008012a0c                f29bms_dbc_bms_voltages_bms_voltages_cell26_encode
                0x0000000008012a44                f29bms_dbc_bms_voltages_bms_voltages_cell26_decode
                0x0000000008012a78                f29bms_dbc_bms_voltages_bms_voltages_cell26_is_in_range
                0x0000000008012a9c                f29bms_dbc_bms_voltages_bms_voltages_cell32_encode
                0x0000000008012ad4                f29bms_dbc_bms_voltages_bms_voltages_cell32_decode
                0x0000000008012b08                f29bms_dbc_bms_voltages_bms_voltages_cell32_is_in_range
                0x0000000008012b2c                f29bms_dbc_bms_voltages_bms_voltages_cell38_encode
                0x0000000008012b64                f29bms_dbc_bms_voltages_bms_voltages_cell38_decode
                0x0000000008012b98                f29bms_dbc_bms_voltages_bms_voltages_cell38_is_in_range
                0x0000000008012bbc                f29bms_dbc_bms_voltages_bms_voltages_cell44_encode
                0x0000000008012bf4                f29bms_dbc_bms_voltages_bms_voltages_cell44_decode
                0x0000000008012c28                f29bms_dbc_bms_voltages_bms_voltages_cell44_is_in_range
                0x0000000008012c4c                f29bms_dbc_bms_voltages_bms_voltages_cell50_encode
                0x0000000008012c84                f29bms_dbc_bms_voltages_bms_voltages_cell50_decode
                0x0000000008012cb8                f29bms_dbc_bms_voltages_bms_voltages_cell50_is_in_range
                0x0000000008012cdc                f29bms_dbc_bms_voltages_bms_voltages_cell56_encode
                0x0000000008012d14                f29bms_dbc_bms_voltages_bms_voltages_cell56_decode
                0x0000000008012d48                f29bms_dbc_bms_voltages_bms_voltages_cell56_is_in_range
                0x0000000008012d6c                f29bms_dbc_bms_voltages_bms_voltages_cell62_encode
                0x0000000008012da4                f29bms_dbc_bms_voltages_bms_voltages_cell62_decode
                0x0000000008012dd8                f29bms_dbc_bms_voltages_bms_voltages_cell62_is_in_range
                0x0000000008012dfc                f29bms_dbc_bms_voltages_bms_voltages_cell68_encode
                0x0000000008012e34                f29bms_dbc_bms_voltages_bms_voltages_cell68_decode
                0x0000000008012e68                f29bms_dbc_bms_voltages_bms_voltages_cell68_is_in_range
                0x0000000008012e8c                f29bms_dbc_bms_voltages_bms_voltages_cell74_encode
                0x0000000008012ec4                f29bms_dbc_bms_voltages_bms_voltages_cell74_decode
                0x0000000008012ef8                f29bms_dbc_bms_voltages_bms_voltages_cell74_is_in_range
                0x0000000008012f1c                f29bms_dbc_bms_voltages_bms_voltages_cell80_encode
                0x0000000008012f54                f29bms_dbc_bms_voltages_bms_voltages_cell80_decode
                0x0000000008012f88                f29bms_dbc_bms_voltages_bms_voltages_cell80_is_in_range
                0x0000000008012fac                f29bms_dbc_bms_voltages_bms_voltages_cell86_encode
                0x0000000008012fe4                f29bms_dbc_bms_voltages_bms_voltages_cell86_decode
                0x0000000008013018                f29bms_dbc_bms_voltages_bms_voltages_cell86_is_in_range
                0x000000000801303c                f29bms_dbc_bms_voltages_bms_voltages_cell3_encode
                0x0000000008013074                f29bms_dbc_bms_voltages_bms_voltages_cell3_decode
                0x00000000080130a8                f29bms_dbc_bms_voltages_bms_voltages_cell3_is_in_range
                0x00000000080130cc                f29bms_dbc_bms_voltages_bms_voltages_cell9_encode
                0x0000000008013104                f29bms_dbc_bms_voltages_bms_voltages_cell9_decode
                0x0000000008013138                f29bms_dbc_bms_voltages_bms_voltages_cell9_is_in_range
                0x000000000801315c                f29bms_dbc_bms_voltages_bms_voltages_cell15_encode
                0x0000000008013194                f29bms_dbc_bms_voltages_bms_voltages_cell15_decode
                0x00000000080131c8                f29bms_dbc_bms_voltages_bms_voltages_cell15_is_in_range
                0x00000000080131ec                f29bms_dbc_bms_voltages_bms_voltages_cell21_encode
                0x0000000008013224                f29bms_dbc_bms_voltages_bms_voltages_cell21_decode
                0x0000000008013258                f29bms_dbc_bms_voltages_bms_voltages_cell21_is_in_range
                0x000000000801327c                f29bms_dbc_bms_voltages_bms_voltages_cell27_encode
                0x00000000080132b4                f29bms_dbc_bms_voltages_bms_voltages_cell27_decode
                0x00000000080132e8                f29bms_dbc_bms_voltages_bms_voltages_cell27_is_in_range
                0x000000000801330c                f29bms_dbc_bms_voltages_bms_voltages_cell33_encode
                0x0000000008013344                f29bms_dbc_bms_voltages_bms_voltages_cell33_decode
                0x0000000008013378                f29bms_dbc_bms_voltages_bms_voltages_cell33_is_in_range
                0x000000000801339c                f29bms_dbc_bms_voltages_bms_voltages_cell39_encode
                0x00000000080133d4                f29bms_dbc_bms_voltages_bms_voltages_cell39_decode
                0x0000000008013408                f29bms_dbc_bms_voltages_bms_voltages_cell39_is_in_range
                0x000000000801342c                f29bms_dbc_bms_voltages_bms_voltages_cell45_encode
                0x0000000008013464                f29bms_dbc_bms_voltages_bms_voltages_cell45_decode
                0x0000000008013498                f29bms_dbc_bms_voltages_bms_voltages_cell45_is_in_range
                0x00000000080134bc                f29bms_dbc_bms_voltages_bms_voltages_cell51_encode
                0x00000000080134f4                f29bms_dbc_bms_voltages_bms_voltages_cell51_decode
                0x0000000008013528                f29bms_dbc_bms_voltages_bms_voltages_cell51_is_in_range
                0x000000000801354c                f29bms_dbc_bms_voltages_bms_voltages_cell57_encode
                0x0000000008013584                f29bms_dbc_bms_voltages_bms_voltages_cell57_decode
                0x00000000080135b8                f29bms_dbc_bms_voltages_bms_voltages_cell57_is_in_range
                0x00000000080135dc                f29bms_dbc_bms_voltages_bms_voltages_cell63_encode
                0x0000000008013614                f29bms_dbc_bms_voltages_bms_voltages_cell63_decode
                0x0000000008013648                f29bms_dbc_bms_voltages_bms_voltages_cell63_is_in_range
                0x000000000801366c                f29bms_dbc_bms_voltages_bms_voltages_cell69_encode
                0x00000000080136a4                f29bms_dbc_bms_voltages_bms_voltages_cell69_decode
                0x00000000080136d8                f29bms_dbc_bms_voltages_bms_voltages_cell69_is_in_range
                0x00000000080136fc                f29bms_dbc_bms_voltages_bms_voltages_cell75_encode
                0x0000000008013734                f29bms_dbc_bms_voltages_bms_voltages_cell75_decode
                0x0000000008013768                f29bms_dbc_bms_voltages_bms_voltages_cell75_is_in_range
                0x000000000801378c                f29bms_dbc_bms_voltages_bms_voltages_cell81_encode
                0x00000000080137c4                f29bms_dbc_bms_voltages_bms_voltages_cell81_decode
                0x00000000080137f8                f29bms_dbc_bms_voltages_bms_voltages_cell81_is_in_range
                0x000000000801381c                f29bms_dbc_bms_voltages_bms_voltages_cell87_encode
                0x0000000008013854                f29bms_dbc_bms_voltages_bms_voltages_cell87_decode
                0x0000000008013888                f29bms_dbc_bms_voltages_bms_voltages_cell87_is_in_range
                0x00000000080138ac                f29bms_dbc_bms_voltages_bms_voltages_cell4_encode
                0x00000000080138e4                f29bms_dbc_bms_voltages_bms_voltages_cell4_decode
                0x0000000008013918                f29bms_dbc_bms_voltages_bms_voltages_cell4_is_in_range
                0x000000000801393c                f29bms_dbc_bms_voltages_bms_voltages_cell10_encode
                0x0000000008013974                f29bms_dbc_bms_voltages_bms_voltages_cell10_decode
                0x00000000080139a8                f29bms_dbc_bms_voltages_bms_voltages_cell10_is_in_range
                0x00000000080139cc                f29bms_dbc_bms_voltages_bms_voltages_cell16_encode
                0x0000000008013a04                f29bms_dbc_bms_voltages_bms_voltages_cell16_decode
                0x0000000008013a38                f29bms_dbc_bms_voltages_bms_voltages_cell16_is_in_range
                0x0000000008013a5c                f29bms_dbc_bms_voltages_bms_voltages_cell22_encode
                0x0000000008013a94                f29bms_dbc_bms_voltages_bms_voltages_cell22_decode
                0x0000000008013ac8                f29bms_dbc_bms_voltages_bms_voltages_cell22_is_in_range
                0x0000000008013aec                f29bms_dbc_bms_voltages_bms_voltages_cell28_encode
                0x0000000008013b24                f29bms_dbc_bms_voltages_bms_voltages_cell28_decode
                0x0000000008013b58                f29bms_dbc_bms_voltages_bms_voltages_cell28_is_in_range
                0x0000000008013b7c                f29bms_dbc_bms_voltages_bms_voltages_cell34_encode
                0x0000000008013bb4                f29bms_dbc_bms_voltages_bms_voltages_cell34_decode
                0x0000000008013be8                f29bms_dbc_bms_voltages_bms_voltages_cell34_is_in_range
                0x0000000008013c0c                f29bms_dbc_bms_voltages_bms_voltages_cell40_encode
                0x0000000008013c44                f29bms_dbc_bms_voltages_bms_voltages_cell40_decode
                0x0000000008013c78                f29bms_dbc_bms_voltages_bms_voltages_cell40_is_in_range
                0x0000000008013c9c                f29bms_dbc_bms_voltages_bms_voltages_cell46_encode
                0x0000000008013cd4                f29bms_dbc_bms_voltages_bms_voltages_cell46_decode
                0x0000000008013d08                f29bms_dbc_bms_voltages_bms_voltages_cell46_is_in_range
                0x0000000008013d2c                f29bms_dbc_bms_voltages_bms_voltages_cell52_encode
                0x0000000008013d64                f29bms_dbc_bms_voltages_bms_voltages_cell52_decode
                0x0000000008013d98                f29bms_dbc_bms_voltages_bms_voltages_cell52_is_in_range
                0x0000000008013dbc                f29bms_dbc_bms_voltages_bms_voltages_cell58_encode
                0x0000000008013df4                f29bms_dbc_bms_voltages_bms_voltages_cell58_decode
                0x0000000008013e28                f29bms_dbc_bms_voltages_bms_voltages_cell58_is_in_range
                0x0000000008013e4c                f29bms_dbc_bms_voltages_bms_voltages_cell64_encode
                0x0000000008013e84                f29bms_dbc_bms_voltages_bms_voltages_cell64_decode
                0x0000000008013eb8                f29bms_dbc_bms_voltages_bms_voltages_cell64_is_in_range
                0x0000000008013edc                f29bms_dbc_bms_voltages_bms_voltages_cell70_encode
                0x0000000008013f14                f29bms_dbc_bms_voltages_bms_voltages_cell70_decode
                0x0000000008013f48                f29bms_dbc_bms_voltages_bms_voltages_cell70_is_in_range
                0x0000000008013f6c                f29bms_dbc_bms_voltages_bms_voltages_cell76_encode
                0x0000000008013fa4                f29bms_dbc_bms_voltages_bms_voltages_cell76_decode
                0x0000000008013fd8                f29bms_dbc_bms_voltages_bms_voltages_cell76_is_in_range
                0x0000000008013ffc                f29bms_dbc_bms_voltages_bms_voltages_cell82_encode
                0x0000000008014034                f29bms_dbc_bms_voltages_bms_voltages_cell82_decode
                0x0000000008014068                f29bms_dbc_bms_voltages_bms_voltages_cell82_is_in_range
                0x000000000801408c                f29bms_dbc_bms_voltages_bms_voltages_cell88_encode
                0x00000000080140c4                f29bms_dbc_bms_voltages_bms_voltages_cell88_decode
                0x00000000080140f8                f29bms_dbc_bms_voltages_bms_voltages_cell88_is_in_range
                0x000000000801411c                f29bms_dbc_bms_voltages_bms_voltages_cell5_encode
                0x0000000008014154                f29bms_dbc_bms_voltages_bms_voltages_cell5_decode
                0x0000000008014188                f29bms_dbc_bms_voltages_bms_voltages_cell5_is_in_range
                0x00000000080141ac                f29bms_dbc_bms_voltages_bms_voltages_cell11_encode
                0x00000000080141e4                f29bms_dbc_bms_voltages_bms_voltages_cell11_decode
                0x0000000008014218                f29bms_dbc_bms_voltages_bms_voltages_cell11_is_in_range
                0x000000000801423c                f29bms_dbc_bms_voltages_bms_voltages_cell17_encode
                0x0000000008014274                f29bms_dbc_bms_voltages_bms_voltages_cell17_decode
                0x00000000080142a8                f29bms_dbc_bms_voltages_bms_voltages_cell17_is_in_range
                0x00000000080142cc                f29bms_dbc_bms_voltages_bms_voltages_cell23_encode
                0x0000000008014304                f29bms_dbc_bms_voltages_bms_voltages_cell23_decode
                0x0000000008014338                f29bms_dbc_bms_voltages_bms_voltages_cell23_is_in_range
                0x000000000801435c                f29bms_dbc_bms_voltages_bms_voltages_cell29_encode
                0x0000000008014394                f29bms_dbc_bms_voltages_bms_voltages_cell29_decode
                0x00000000080143c8                f29bms_dbc_bms_voltages_bms_voltages_cell29_is_in_range
                0x00000000080143ec                f29bms_dbc_bms_voltages_bms_voltages_cell35_encode
                0x0000000008014424                f29bms_dbc_bms_voltages_bms_voltages_cell35_decode
                0x0000000008014458                f29bms_dbc_bms_voltages_bms_voltages_cell35_is_in_range
                0x000000000801447c                f29bms_dbc_bms_voltages_bms_voltages_cell41_encode
                0x00000000080144b4                f29bms_dbc_bms_voltages_bms_voltages_cell41_decode
                0x00000000080144e8                f29bms_dbc_bms_voltages_bms_voltages_cell41_is_in_range
                0x000000000801450c                f29bms_dbc_bms_voltages_bms_voltages_cell47_encode
                0x0000000008014544                f29bms_dbc_bms_voltages_bms_voltages_cell47_decode
                0x0000000008014578                f29bms_dbc_bms_voltages_bms_voltages_cell47_is_in_range
                0x000000000801459c                f29bms_dbc_bms_voltages_bms_voltages_cell53_encode
                0x00000000080145d4                f29bms_dbc_bms_voltages_bms_voltages_cell53_decode
                0x0000000008014608                f29bms_dbc_bms_voltages_bms_voltages_cell53_is_in_range
                0x000000000801462c                f29bms_dbc_bms_voltages_bms_voltages_cell59_encode
                0x0000000008014664                f29bms_dbc_bms_voltages_bms_voltages_cell59_decode
                0x0000000008014698                f29bms_dbc_bms_voltages_bms_voltages_cell59_is_in_range
                0x00000000080146bc                f29bms_dbc_bms_voltages_bms_voltages_cell65_encode
                0x00000000080146f4                f29bms_dbc_bms_voltages_bms_voltages_cell65_decode
                0x0000000008014728                f29bms_dbc_bms_voltages_bms_voltages_cell65_is_in_range
                0x000000000801474c                f29bms_dbc_bms_voltages_bms_voltages_cell71_encode
                0x0000000008014784                f29bms_dbc_bms_voltages_bms_voltages_cell71_decode
                0x00000000080147b8                f29bms_dbc_bms_voltages_bms_voltages_cell71_is_in_range
                0x00000000080147dc                f29bms_dbc_bms_voltages_bms_voltages_cell77_encode
                0x0000000008014814                f29bms_dbc_bms_voltages_bms_voltages_cell77_decode
                0x0000000008014848                f29bms_dbc_bms_voltages_bms_voltages_cell77_is_in_range
                0x000000000801486c                f29bms_dbc_bms_voltages_bms_voltages_cell83_encode
                0x00000000080148a4                f29bms_dbc_bms_voltages_bms_voltages_cell83_decode
                0x00000000080148d8                f29bms_dbc_bms_voltages_bms_voltages_cell83_is_in_range
                0x00000000080148fc                f29bms_dbc_bms_voltages_bms_voltages_cell89_encode
                0x0000000008014934                f29bms_dbc_bms_voltages_bms_voltages_cell89_decode
                0x0000000008014968                f29bms_dbc_bms_voltages_bms_voltages_cell89_is_in_range
                0x000000000801498c                f29bms_dbc_bms_thermistor_voltages_pack
                0x0000000008014f46                f29bms_dbc_bms_thermistor_voltages_unpack
                0x0000000008015404                f29bms_dbc_bms_thermistor_voltages_bms_thermistor_voltages_mux_encode
                0x0000000008015422                f29bms_dbc_bms_thermistor_voltages_bms_thermistor_voltages_mux_decode
                0x0000000008015446                f29bms_dbc_bms_thermistor_voltages_bms_thermistor_voltages_mux_is_in_range
                0x0000000008015468                f29bms_dbc_bms_thermistor_voltages_bms_thermistor_voltages_tm0_encode
                0x00000000080154a0                f29bms_dbc_bms_thermistor_voltages_bms_thermistor_voltages_tm0_decode
                0x00000000080154d4                f29bms_dbc_bms_thermistor_voltages_bms_thermistor_voltages_tm0_is_in_range
                0x00000000080154f8                f29bms_dbc_bms_thermistor_voltages_bms_thermistor_voltages_tm6_encode
                0x0000000008015530                f29bms_dbc_bms_thermistor_voltages_bms_thermistor_voltages_tm6_decode
                0x0000000008015564                f29bms_dbc_bms_thermistor_voltages_bms_thermistor_voltages_tm6_is_in_range
                0x0000000008015588                f29bms_dbc_bms_thermistor_voltages_bms_thermistor_voltages_tm12_encode
                0x00000000080155c0                f29bms_dbc_bms_thermistor_voltages_bms_thermistor_voltages_tm12_decode
                0x00000000080155f4                f29bms_dbc_bms_thermistor_voltages_bms_thermistor_voltages_tm12_is_in_range
                0x0000000008015618                f29bms_dbc_bms_thermistor_voltages_bms_thermistor_voltages_tm18_encode
                0x0000000008015650                f29bms_dbc_bms_thermistor_voltages_bms_thermistor_voltages_tm18_decode
                0x0000000008015684                f29bms_dbc_bms_thermistor_voltages_bms_thermistor_voltages_tm18_is_in_range
                0x00000000080156a8                f29bms_dbc_bms_thermistor_voltages_bms_thermistor_voltages_tm1_encode
                0x00000000080156e0                f29bms_dbc_bms_thermistor_voltages_bms_thermistor_voltages_tm1_decode
                0x0000000008015714                f29bms_dbc_bms_thermistor_voltages_bms_thermistor_voltages_tm1_is_in_range
                0x0000000008015738                f29bms_dbc_bms_thermistor_voltages_bms_thermistor_voltages_tm7_encode
                0x0000000008015770                f29bms_dbc_bms_thermistor_voltages_bms_thermistor_voltages_tm7_decode
                0x00000000080157a4                f29bms_dbc_bms_thermistor_voltages_bms_thermistor_voltages_tm7_is_in_range
                0x00000000080157c8                f29bms_dbc_bms_thermistor_voltages_bms_thermistor_voltages_tm13_encode
                0x0000000008015800                f29bms_dbc_bms_thermistor_voltages_bms_thermistor_voltages_tm13_decode
                0x0000000008015834                f29bms_dbc_bms_thermistor_voltages_bms_thermistor_voltages_tm13_is_in_range
                0x0000000008015858                f29bms_dbc_bms_thermistor_voltages_bms_thermistor_voltages_tm19_encode
                0x0000000008015890                f29bms_dbc_bms_thermistor_voltages_bms_thermistor_voltages_tm19_decode
                0x00000000080158c4                f29bms_dbc_bms_thermistor_voltages_bms_thermistor_voltages_tm19_is_in_range
                0x00000000080158e8                f29bms_dbc_bms_thermistor_voltages_bms_thermistor_voltages_tm2_encode
                0x0000000008015920                f29bms_dbc_bms_thermistor_voltages_bms_thermistor_voltages_tm2_decode
                0x0000000008015954                f29bms_dbc_bms_thermistor_voltages_bms_thermistor_voltages_tm2_is_in_range
                0x0000000008015978                f29bms_dbc_bms_thermistor_voltages_bms_thermistor_voltages_tm8_encode
                0x00000000080159b0                f29bms_dbc_bms_thermistor_voltages_bms_thermistor_voltages_tm8_decode
                0x00000000080159e4                f29bms_dbc_bms_thermistor_voltages_bms_thermistor_voltages_tm8_is_in_range
                0x0000000008015a08                f29bms_dbc_bms_thermistor_voltages_bms_thermistor_voltages_tm14_encode
                0x0000000008015a40                f29bms_dbc_bms_thermistor_voltages_bms_thermistor_voltages_tm14_decode
                0x0000000008015a74                f29bms_dbc_bms_thermistor_voltages_bms_thermistor_voltages_tm14_is_in_range
                0x0000000008015a98                f29bms_dbc_bms_thermistor_voltages_bms_thermistor_voltages_tm3_encode
                0x0000000008015ad0                f29bms_dbc_bms_thermistor_voltages_bms_thermistor_voltages_tm3_decode
                0x0000000008015b04                f29bms_dbc_bms_thermistor_voltages_bms_thermistor_voltages_tm3_is_in_range
                0x0000000008015b28                f29bms_dbc_bms_thermistor_voltages_bms_thermistor_voltages_tm9_encode
                0x0000000008015b60                f29bms_dbc_bms_thermistor_voltages_bms_thermistor_voltages_tm9_decode
                0x0000000008015b94                f29bms_dbc_bms_thermistor_voltages_bms_thermistor_voltages_tm9_is_in_range
                0x0000000008015bb8                f29bms_dbc_bms_thermistor_voltages_bms_thermistor_voltages_tm15_encode
                0x0000000008015bf0                f29bms_dbc_bms_thermistor_voltages_bms_thermistor_voltages_tm15_decode
                0x0000000008015c24                f29bms_dbc_bms_thermistor_voltages_bms_thermistor_voltages_tm15_is_in_range
                0x0000000008015c48                f29bms_dbc_bms_thermistor_voltages_bms_thermistor_voltages_tm4_encode
                0x0000000008015c80                f29bms_dbc_bms_thermistor_voltages_bms_thermistor_voltages_tm4_decode
                0x0000000008015cb4                f29bms_dbc_bms_thermistor_voltages_bms_thermistor_voltages_tm4_is_in_range
                0x0000000008015cd8                f29bms_dbc_bms_thermistor_voltages_bms_thermistor_voltages_tm10_encode
                0x0000000008015d10                f29bms_dbc_bms_thermistor_voltages_bms_thermistor_voltages_tm10_decode
                0x0000000008015d44                f29bms_dbc_bms_thermistor_voltages_bms_thermistor_voltages_tm10_is_in_range
                0x0000000008015d68                f29bms_dbc_bms_thermistor_voltages_bms_thermistor_voltages_tm16_encode
                0x0000000008015da0                f29bms_dbc_bms_thermistor_voltages_bms_thermistor_voltages_tm16_decode
                0x0000000008015dd4                f29bms_dbc_bms_thermistor_voltages_bms_thermistor_voltages_tm16_is_in_range
                0x0000000008015df8                f29bms_dbc_bms_thermistor_voltages_bms_thermistor_voltages_tm5_encode
                0x0000000008015e30                f29bms_dbc_bms_thermistor_voltages_bms_thermistor_voltages_tm5_decode
                0x0000000008015e64                f29bms_dbc_bms_thermistor_voltages_bms_thermistor_voltages_tm5_is_in_range
                0x0000000008015e88                f29bms_dbc_bms_thermistor_voltages_bms_thermistor_voltages_tm11_encode
                0x0000000008015ec0                f29bms_dbc_bms_thermistor_voltages_bms_thermistor_voltages_tm11_decode
                0x0000000008015ef4                f29bms_dbc_bms_thermistor_voltages_bms_thermistor_voltages_tm11_is_in_range
                0x0000000008015f18                f29bms_dbc_bms_thermistor_voltages_bms_thermistor_voltages_tm17_encode
                0x0000000008015f50                f29bms_dbc_bms_thermistor_voltages_bms_thermistor_voltages_tm17_decode
                0x0000000008015f84                f29bms_dbc_bms_thermistor_voltages_bms_thermistor_voltages_tm17_is_in_range
                0x0000000008015fa8                f29bms_dbc_bms_temperatures_pack
                0x000000000801664a                f29bms_dbc_bms_temperatures_unpack
                0x0000000008016b9e                f29bms_dbc_bms_temperatures_bms_temperatures_mux_encode
                0x0000000008016bbc                f29bms_dbc_bms_temperatures_bms_temperatures_mux_decode
                0x0000000008016be0                f29bms_dbc_bms_temperatures_bms_temperatures_mux_is_in_range
                0x0000000008016c02                f29bms_dbc_bms_temperatures_bms_temperatures_0_encode
                0x0000000008016c20                f29bms_dbc_bms_temperatures_bms_temperatures_0_decode
                0x0000000008016c46                f29bms_dbc_bms_temperatures_bms_temperatures_0_is_in_range
                0x0000000008016c5c                f29bms_dbc_bms_temperatures_bms_temperatures_7_encode
                0x0000000008016c7a                f29bms_dbc_bms_temperatures_bms_temperatures_7_decode
                0x0000000008016ca0                f29bms_dbc_bms_temperatures_bms_temperatures_7_is_in_range
                0x0000000008016cb6                f29bms_dbc_bms_temperatures_bms_temperatures_14_encode
                0x0000000008016cd4                f29bms_dbc_bms_temperatures_bms_temperatures_14_decode
                0x0000000008016cfa                f29bms_dbc_bms_temperatures_bms_temperatures_14_is_in_range
                0x0000000008016d10                f29bms_dbc_bms_temperatures_bms_temperatures_1_encode
                0x0000000008016d2e                f29bms_dbc_bms_temperatures_bms_temperatures_1_decode
                0x0000000008016d54                f29bms_dbc_bms_temperatures_bms_temperatures_1_is_in_range
                0x0000000008016d6a                f29bms_dbc_bms_temperatures_bms_temperatures_8_encode
                0x0000000008016d88                f29bms_dbc_bms_temperatures_bms_temperatures_8_decode
                0x0000000008016dae                f29bms_dbc_bms_temperatures_bms_temperatures_8_is_in_range
                0x0000000008016dc4                f29bms_dbc_bms_temperatures_bms_temperatures_15_encode
                0x0000000008016de2                f29bms_dbc_bms_temperatures_bms_temperatures_15_decode
                0x0000000008016e08                f29bms_dbc_bms_temperatures_bms_temperatures_15_is_in_range
                0x0000000008016e1e                f29bms_dbc_bms_temperatures_bms_temperatures_2_encode
                0x0000000008016e3c                f29bms_dbc_bms_temperatures_bms_temperatures_2_decode
                0x0000000008016e62                f29bms_dbc_bms_temperatures_bms_temperatures_2_is_in_range
                0x0000000008016e78                f29bms_dbc_bms_temperatures_bms_temperatures_9_encode
                0x0000000008016e96                f29bms_dbc_bms_temperatures_bms_temperatures_9_decode
                0x0000000008016ebc                f29bms_dbc_bms_temperatures_bms_temperatures_9_is_in_range
                0x0000000008016ed2                f29bms_dbc_bms_temperatures_bms_temperatures_16_encode
                0x0000000008016ef0                f29bms_dbc_bms_temperatures_bms_temperatures_16_decode
                0x0000000008016f16                f29bms_dbc_bms_temperatures_bms_temperatures_16_is_in_range
                0x0000000008016f2c                f29bms_dbc_bms_temperatures_bms_temperatures_3_encode
                0x0000000008016f4a                f29bms_dbc_bms_temperatures_bms_temperatures_3_decode
                0x0000000008016f70                f29bms_dbc_bms_temperatures_bms_temperatures_3_is_in_range
                0x0000000008016f86                f29bms_dbc_bms_temperatures_bms_temperatures_10_encode
                0x0000000008016fa4                f29bms_dbc_bms_temperatures_bms_temperatures_10_decode
                0x0000000008016fca                f29bms_dbc_bms_temperatures_bms_temperatures_10_is_in_range
                0x0000000008016fe0                f29bms_dbc_bms_temperatures_bms_temperatures_17_encode
                0x0000000008016ffe                f29bms_dbc_bms_temperatures_bms_temperatures_17_decode
                0x0000000008017024                f29bms_dbc_bms_temperatures_bms_temperatures_17_is_in_range
                0x000000000801703a                f29bms_dbc_bms_temperatures_bms_temperatures_4_encode
                0x0000000008017058                f29bms_dbc_bms_temperatures_bms_temperatures_4_decode
                0x000000000801707e                f29bms_dbc_bms_temperatures_bms_temperatures_4_is_in_range
                0x0000000008017094                f29bms_dbc_bms_temperatures_bms_temperatures_11_encode
                0x00000000080170b2                f29bms_dbc_bms_temperatures_bms_temperatures_11_decode
                0x00000000080170d8                f29bms_dbc_bms_temperatures_bms_temperatures_11_is_in_range
                0x00000000080170ee                f29bms_dbc_bms_temperatures_bms_temperatures_18_encode
                0x000000000801710c                f29bms_dbc_bms_temperatures_bms_temperatures_18_decode
                0x0000000008017132                f29bms_dbc_bms_temperatures_bms_temperatures_18_is_in_range
                0x0000000008017148                f29bms_dbc_bms_temperatures_bms_temperatures_5_encode
                0x0000000008017166                f29bms_dbc_bms_temperatures_bms_temperatures_5_decode
                0x000000000801718c                f29bms_dbc_bms_temperatures_bms_temperatures_5_is_in_range
                0x00000000080171a2                f29bms_dbc_bms_temperatures_bms_temperatures_12_encode
                0x00000000080171c0                f29bms_dbc_bms_temperatures_bms_temperatures_12_decode
                0x00000000080171e6                f29bms_dbc_bms_temperatures_bms_temperatures_12_is_in_range
                0x00000000080171fc                f29bms_dbc_bms_temperatures_bms_temperatures_19_encode
                0x000000000801721a                f29bms_dbc_bms_temperatures_bms_temperatures_19_decode
                0x0000000008017240                f29bms_dbc_bms_temperatures_bms_temperatures_19_is_in_range
                0x0000000008017256                f29bms_dbc_bms_temperatures_bms_temperatures_6_encode
                0x0000000008017274                f29bms_dbc_bms_temperatures_bms_temperatures_6_decode
                0x000000000801729a                f29bms_dbc_bms_temperatures_bms_temperatures_6_is_in_range
                0x00000000080172b0                f29bms_dbc_bms_temperatures_bms_temperatures_13_encode
                0x00000000080172ce                f29bms_dbc_bms_temperatures_bms_temperatures_13_decode
                0x00000000080172f4                f29bms_dbc_bms_temperatures_bms_temperatures_13_is_in_range
                0x000000000801730a                f29bms_dbc_bms_drain_status_a_pack
                0x0000000008017444                f29bms_dbc_bms_drain_status_a_unpack
                0x00000000080175a0                f29bms_dbc_bms_drain_status_a_bms_drain_status_cells0to63_encode
                0x00000000080175c0                f29bms_dbc_bms_drain_status_a_bms_drain_status_cells0to63_decode
                0x00000000080175e0                f29bms_dbc_bms_drain_status_a_bms_drain_status_cells0to63_is_in_range
                0x000000000801760e                f29bms_dbc_bms_drain_status_b_pack
                0x00000000080176c0                f29bms_dbc_bms_drain_status_b_unpack
                0x000000000801774a                f29bms_dbc_bms_drain_status_b_bms_drain_status_cells64to89_encode
                0x0000000008017766                f29bms_dbc_bms_drain_status_b_bms_drain_status_cells64to89_decode
                0x0000000008017782                f29bms_dbc_bms_drain_status_b_bms_drain_status_cells64to89_is_in_range
                0x000000000801779e                f29bms_dbc_bms_current_pack
                0x0000000008017850                f29bms_dbc_bms_current_unpack
                0x00000000080178da                f29bms_dbc_bms_current_bms_inst_current_filt_encode
                0x0000000008017910                f29bms_dbc_bms_current_bms_inst_current_filt_decode
                0x000000000801793c                f29bms_dbc_bms_current_bms_inst_current_filt_is_in_range
                0x000000000801795c                f29bms_dbc_bms_charge_request_pack
                0x0000000008017a30                f29bms_dbc_bms_charge_request_unpack
                0x0000000008017ad8                f29bms_dbc_bms_charge_request_bms_charge_request_max_voltage_encode
                0x0000000008017b10                f29bms_dbc_bms_charge_request_bms_charge_request_max_voltage_decode
                0x0000000008017b44                f29bms_dbc_bms_charge_request_bms_charge_request_max_voltage_is_in_range
                0x0000000008017b6c                f29bms_dbc_bms_charge_request_bms_charge_request_max_current_encode
                0x0000000008017ba4                f29bms_dbc_bms_charge_request_bms_charge_request_max_current_decode
                0x0000000008017bd8                f29bms_dbc_bms_charge_request_bms_charge_request_max_current_is_in_range
                0x0000000008017c00                f29bms_dbc_bms_charge_request_bms_charge_request_control_encode
                0x0000000008017c1e                f29bms_dbc_bms_charge_request_bms_charge_request_control_decode
                0x0000000008017c42                f29bms_dbc_bms_charge_request_bms_charge_request_control_is_in_range
 .text          0x0000000008017c64      0x114 /usr/lib/gcc/arm-none-eabi/9.2.1/thumb/v6-m/nofp/libgcc.a(_udivsi3.o)
                0x0000000008017c64                __udivsi3
                0x0000000008017c64                __aeabi_uidiv
                0x0000000008017d70                __aeabi_uidivmod
 .text          0x0000000008017d78        0x4 /usr/lib/gcc/arm-none-eabi/9.2.1/thumb/v6-m/nofp/libgcc.a(_dvmd_tls.o)
                0x0000000008017d78                __aeabi_ldiv0
                0x0000000008017d78                __aeabi_idiv0
 .text          0x0000000008017d7c       0x50 /usr/lib/gcc/arm-none-eabi/9.2.1/thumb/v6-m/nofp/libgcc.a(_muldi3.o)
                0x0000000008017d7c                __aeabi_lmul
                0x0000000008017d7c                __muldi3
 .text          0x0000000008017dcc       0x3c /usr/lib/gcc/arm-none-eabi/9.2.1/thumb/v6-m/nofp/libgcc.a(_fixunsdfsi.o)
                0x0000000008017dcc                __fixunsdfsi
                0x0000000008017dcc                __aeabi_d2uiz
 .text          0x0000000008017e08       0x3c /usr/lib/gcc/arm-none-eabi/9.2.1/thumb/v6-m/nofp/libgcc.a(_fixunsdfdi.o)
                0x0000000008017e08                __aeabi_d2ulz
                0x0000000008017e08                __fixunsdfdi
 .text          0x0000000008017e44       0x2c /usr/lib/gcc/arm-none-eabi/9.2.1/thumb/v6-m/nofp/libgcc.a(_floatundidf.o)
                0x0000000008017e44                __aeabi_ul2d
                0x0000000008017e44                __floatundidf
 .text          0x0000000008017e70      0x218 /usr/lib/gcc/arm-none-eabi/9.2.1/thumb/v6-m/nofp/libgcc.a(divsf3.o)
                0x0000000008017e70                __aeabi_fdiv
 .text          0x0000000008018088      0x234 /usr/lib/gcc/arm-none-eabi/9.2.1/thumb/v6-m/nofp/libgcc.a(mulsf3.o)
                0x0000000008018088                __aeabi_fmul
 .text          0x00000000080182bc       0x8c /usr/lib/gcc/arm-none-eabi/9.2.1/thumb/v6-m/nofp/libgcc.a(floatsisf.o)
                0x00000000080182bc                __aeabi_i2f
 .text          0x0000000008018348       0x78 /usr/lib/gcc/arm-none-eabi/9.2.1/thumb/v6-m/nofp/libgcc.a(floatunsisf.o)
                0x0000000008018348                __aeabi_ui2f
 .text          0x00000000080183c0      0x6d4 /usr/lib/gcc/arm-none-eabi/9.2.1/thumb/v6-m/nofp/libgcc.a(adddf3.o)
                0x00000000080183c0                __aeabi_dadd
 .text          0x0000000008018a94      0x5d0 /usr/lib/gcc/arm-none-eabi/9.2.1/thumb/v6-m/nofp/libgcc.a(divdf3.o)
                0x0000000008018a94                __aeabi_ddiv
 .text          0x0000000008019064      0x4d8 /usr/lib/gcc/arm-none-eabi/9.2.1/thumb/v6-m/nofp/libgcc.a(muldf3.o)
                0x0000000008019064                __aeabi_dmul
 .text          0x000000000801953c      0x724 /usr/lib/gcc/arm-none-eabi/9.2.1/thumb/v6-m/nofp/libgcc.a(subdf3.o)
                0x000000000801953c                __aeabi_dsub
 .text          0x0000000008019c60       0x6c /usr/lib/gcc/arm-none-eabi/9.2.1/thumb/v6-m/nofp/libgcc.a(fixdfsi.o)
                0x0000000008019c60                __aeabi_d2iz
 .text          0x0000000008019ccc       0x60 /usr/lib/gcc/arm-none-eabi/9.2.1/thumb/v6-m/nofp/libgcc.a(floatsidf.o)
                0x0000000008019ccc                __aeabi_i2d
 .text          0x0000000008019d2c       0x4c /usr/lib/gcc/arm-none-eabi/9.2.1/thumb/v6-m/nofp/libgcc.a(floatunsidf.o)
                0x0000000008019d2c                __aeabi_ui2d
 .text          0x0000000008019d78       0x90 /usr/lib/gcc/arm-none-eabi/9.2.1/thumb/v6-m/nofp/libgcc.a(extendsfdf2.o)
                0x0000000008019d78                __aeabi_f2d
 .text          0x0000000008019e08      0x110 /usr/lib/gcc/arm-none-eabi/9.2.1/thumb/v6-m/nofp/libgcc.a(truncdfsf2.o)
                0x0000000008019e08                __aeabi_d2f
 .text          0x0000000008019f18       0x7c /usr/lib/gcc/arm-none-eabi/9.2.1/thumb/v6-m/nofp/libgcc.a(_arm_cmpdf2.o)
                0x0000000008019f18                __aeabi_cdrcmple
                0x0000000008019f28                __aeabi_cdcmple
                0x0000000008019f28                __aeabi_cdcmpeq
                0x0000000008019f38                __aeabi_dcmpeq
                0x0000000008019f44                __aeabi_dcmplt
                0x0000000008019f58                __aeabi_dcmple
                0x0000000008019f6c                __aeabi_dcmpgt
                0x0000000008019f80                __aeabi_dcmpge
 .text          0x0000000008019f94       0x3c /usr/lib/gcc/arm-none-eabi/9.2.1/thumb/v6-m/nofp/libgcc.a(_clzsi2.o)
                0x0000000008019f94                __clzsi2
 .text          0x0000000008019fd0       0x78 /usr/lib/gcc/arm-none-eabi/9.2.1/thumb/v6-m/nofp/libgcc.a(eqdf2.o)
                0x0000000008019fd0                __eqdf2
                0x0000000008019fd0                __nedf2
 .text          0x000000000801a048       0xe4 /usr/lib/gcc/arm-none-eabi/9.2.1/thumb/v6-m/nofp/libgcc.a(gedf2.o)
                0x000000000801a048                __gtdf2
                0x000000000801a048                __gedf2
 .text          0x000000000801a12c       0xe0 /usr/lib/gcc/arm-none-eabi/9.2.1/thumb/v6-m/nofp/libgcc.a(ledf2.o)
                0x000000000801a12c                __ltdf2
                0x000000000801a12c                __ledf2
 .text          0x000000000801a20c       0x10 /usr/lib/gcc/arm-none-eabi/9.2.1/../../../arm-none-eabi/lib/thumb/v6-m/nofp/libc.a(lib_a-atexit.o)
                0x000000000801a20c                atexit
 .text          0x000000000801a21c       0x20 /usr/lib/gcc/arm-none-eabi/9.2.1/../../../arm-none-eabi/lib/thumb/v6-m/nofp/libc.a(lib_a-exit.o)
                0x000000000801a21c                exit
 .text          0x000000000801a23c       0x28 /usr/lib/gcc/arm-none-eabi/9.2.1/../../../arm-none-eabi/lib/thumb/v6-m/nofp/libc.a(lib_a-fini.o)
                0x000000000801a23c                __libc_fini_array
 .text          0x000000000801a264        0x0 /usr/lib/gcc/arm-none-eabi/9.2.1/../../../arm-none-eabi/lib/thumb/v6-m/nofp/libc.a(lib_a-impure.o)
 .text          0x000000000801a264       0x44 /usr/lib/gcc/arm-none-eabi/9.2.1/../../../arm-none-eabi/lib/thumb/v6-m/nofp/libc.a(lib_a-init.o)
                0x000000000801a264                __libc_init_array
 .text          0x000000000801a2a8       0x28 /usr/lib/gcc/arm-none-eabi/9.2.1/../../../arm-none-eabi/lib/thumb/v6-m/nofp/libc.a(lib_a-malloc.o)
                0x000000000801a2a8                malloc
                0x000000000801a2bc                free
 .text          0x000000000801a2d0      0x58c /usr/lib/gcc/arm-none-eabi/9.2.1/../../../arm-none-eabi/lib/thumb/v6-m/nofp/libc.a(lib_a-mallocr.o)
                0x000000000801a2d0                _malloc_r
 .text          0x000000000801a85c       0xa8 /usr/lib/gcc/arm-none-eabi/9.2.1/../../../arm-none-eabi/lib/thumb/v6-m/nofp/libc.a(lib_a-memcpy-stub.o)
                0x000000000801a85c                memcpy
 .text          0x000000000801a904       0xa8 /usr/lib/gcc/arm-none-eabi/9.2.1/../../../arm-none-eabi/lib/thumb/v6-m/nofp/libc.a(lib_a-memset.o)
                0x000000000801a904                memset
 .text          0x000000000801a9ac        0x8 /usr/lib/gcc/arm-none-eabi/9.2.1/../../../arm-none-eabi/lib/thumb/v6-m/nofp/libc.a(lib_a-mlock.o)
                0x000000000801a9ac                __malloc_lock
                0x000000000801a9b0                __malloc_unlock
 .text          0x000000000801a9b4       0x24 /usr/lib/gcc/arm-none-eabi/9.2.1/../../../arm-none-eabi/lib/thumb/v6-m/nofp/libc.a(lib_a-sbrkr.o)
                0x000000000801a9b4                _sbrk_r
 .text          0x000000000801a9d8       0x88 /usr/lib/gcc/arm-none-eabi/9.2.1/../../../arm-none-eabi/lib/thumb/v6-m/nofp/libc.a(lib_a-__atexit.o)
                0x000000000801a9d8                __register_exitproc
 .text          0x000000000801aa60       0xbc /usr/lib/gcc/arm-none-eabi/9.2.1/../../../arm-none-eabi/lib/thumb/v6-m/nofp/libc.a(lib_a-__call_atexit.o)
                0x000000000801aa60                __call_exitprocs
 .text          0x000000000801ab1c      0x27c /usr/lib/gcc/arm-none-eabi/9.2.1/../../../arm-none-eabi/lib/thumb/v6-m/nofp/libc.a(lib_a-freer.o)
                0x000000000801ab1c                _malloc_trim_r
                0x000000000801abbc                _free_r
 .text          0x000000000801ad98       0xb0 /usr/lib/gcc/arm-none-eabi/9.2.1/../../../arm-none-eabi/lib/thumb/v6-m/nofp/libc.a(lib_a-reent.o)
                0x000000000801ad98                cleanup_glue
                0x000000000801adb4                _reclaim_reent
 .text          0x000000000801ae48       0x1c /usr/lib/gcc/arm-none-eabi/9.2.1/../../../arm-none-eabi/lib/thumb/v6-m/nofp/libnosys.a(sbrk.o)
                0x000000000801ae48                _sbrk
 .text          0x000000000801ae64        0x4 /usr/lib/gcc/arm-none-eabi/9.2.1/../../../arm-none-eabi/lib/thumb/v6-m/nofp/libnosys.a(_exit.o)
                0x000000000801ae64                _exit
 .text          0x000000000801ae68        0x0 /usr/lib/gcc/arm-none-eabi/9.2.1/thumb/v6-m/nofp/crtend.o
 .text          0x000000000801ae68        0x0 /usr/lib/gcc/arm-none-eabi/9.2.1/thumb/v6-m/nofp/crtn.o
 *(.text*)
 .text.Reset_Handler
                0x000000000801ae68       0x7c /f29bms/libs/stm32libs/CMSIS/Device/ST/STM32F0xx/Source/Templates/gcc_ride7/startup_stm32f0xx.o
                0x000000000801ae68                Reset_Handler
 .text.Default_Handler
                0x000000000801aee4        0x2 /f29bms/libs/stm32libs/CMSIS/Device/ST/STM32F0xx/Source/Templates/gcc_ride7/startup_stm32f0xx.o
                0x000000000801aee4                TIM1_CC_IRQHandler
                0x000000000801aee4                HardFault_Handler
                0x000000000801aee4                ADC1_COMP_IRQHandler
                0x000000000801aee4                SysTick_Handler
                0x000000000801aee4                PVD_IRQHandler
                0x000000000801aee4                PendSV_Handler
                0x000000000801aee4                NMI_Handler
                0x000000000801aee4                I2C1_IRQHandler
                0x000000000801aee4                SPI1_IRQHandler
                0x000000000801aee4                TIM6_DAC_IRQHandler
                0x000000000801aee4                EXTI2_3_IRQHandler
                0x000000000801aee4                I2C2_IRQHandler
                0x000000000801aee4                TIM17_IRQHandler
                0x000000000801aee4                RTC_IRQHandler
                0x000000000801aee4                TIM16_IRQHandler
                0x000000000801aee4                TIM3_IRQHandler
                0x000000000801aee4                EXTI4_15_IRQHandler
                0x000000000801aee4                RCC_IRQHandler
                0x000000000801aee4                DMA1_Channel1_IRQHandler
                0x000000000801aee4                Default_Handler
                0x000000000801aee4                CEC_IRQHandler
                0x000000000801aee4                TIM14_IRQHandler
                0x000000000801aee4                DMA1_Channel4_5_IRQHandler
                0x000000000801aee4                TIM15_IRQHandler
                0x000000000801aee4                EXTI0_1_IRQHandler
                0x000000000801aee4                SPI2_IRQHandler
                0x000000000801aee4                SVC_Handler
                0x000000000801aee4                TS_IRQHandler
                0x000000000801aee4                WWDG_IRQHandler
                0x000000000801aee4                TIM2_IRQHandler
                0x000000000801aee4                DMA1_Channel2_3_IRQHandler
                0x000000000801aee4                USART2_IRQHandler
                0x000000000801aee4                FLASH_IRQHandler
                0x000000000801aee4                USART1_IRQHandler
                0x000000000801aee4                TIM1_BRK_UP_TRG_COM_IRQHandler
 *fill*         0x000000000801aee6        0x2 
 .text.startup  0x000000000801aee8       0x18 /usr/lib/gcc/arm-none-eabi/9.2.1/../../../arm-none-eabi/lib/thumb/v6-m/nofp/libc.a(lib_a-__call_atexit.o)
 *(.glue_7)
 .glue_7        0x000000000801af00        0x0 linker stubs
 *(.glue_7t)
 .glue_7t       0x000000000801af00        0x0 linker stubs
 *(.eh_frame)
 .eh_frame      0x000000000801af00        0x0 /usr/lib/gcc/arm-none-eabi/9.2.1/thumb/v6-m/nofp/crtbegin.o
 .eh_frame      0x000000000801af00        0x4 /usr/lib/gcc/arm-none-eabi/9.2.1/thumb/v6-m/nofp/crtend.o
 *(.init)
 .init          0x000000000801af04        0x4 /usr/lib/gcc/arm-none-eabi/9.2.1/thumb/v6-m/nofp/crti.o
                0x000000000801af04                _init
 .init          0x000000000801af08        0x8 /usr/lib/gcc/arm-none-eabi/9.2.1/thumb/v6-m/nofp/crtn.o
 *(.fini)
 .fini          0x000000000801af10        0x4 /usr/lib/gcc/arm-none-eabi/9.2.1/thumb/v6-m/nofp/crti.o
                0x000000000801af10                _fini
 .fini          0x000000000801af14        0x8 /usr/lib/gcc/arm-none-eabi/9.2.1/thumb/v6-m/nofp/crtn.o
                0x000000000801af1c                . = ALIGN (0x4)
                0x000000000801af1c                _etext = .

.vfp11_veneer   0x000000000801af1c        0x0
 .vfp11_veneer  0x000000000801af1c        0x0 linker stubs

.v4_bx          0x000000000801af1c        0x0
 .v4_bx         0x000000000801af1c        0x0 linker stubs

.iplt           0x000000000801af1c        0x0
 .iplt          0x000000000801af1c        0x0 /usr/lib/gcc/arm-none-eabi/9.2.1/thumb/v6-m/nofp/crtbegin.o

.rodata         0x000000000801af1c      0x6a8
                0x000000000801af1c                . = ALIGN (0x4)
 *(.rodata)
 .rodata        0x000000000801af1c      0x408 /f29bms/src/driver/HAL_SlaveChips/STM32_HAL_SlaveChips.o
                0x000000000801af1c                ReadVoltagesCMD0
                0x000000000801af20                ReadVoltagesCMD1
 .rodata        0x000000000801b324        0x8 /f29bms/src/driver/HAL_Spi/STM32_HAL_Spi.o
 .rodata        0x000000000801b32c       0x84 /f29bms/libs/stm32libs/STM32F0xx_StdPeriph_Driver/src/stm32f0xx_can.o
 .rodata        0x000000000801b3b0       0xd0 /f29bms/src/app/CAN/STM32_f29bms_dbc.o
 .rodata        0x000000000801b480       0x80 /usr/lib/gcc/arm-none-eabi/9.2.1/thumb/v6-m/nofp/libgcc.a(divsf3.o)
 .rodata        0x000000000801b500       0x40 /usr/lib/gcc/arm-none-eabi/9.2.1/thumb/v6-m/nofp/libgcc.a(mulsf3.o)
 .rodata        0x000000000801b540       0x40 /usr/lib/gcc/arm-none-eabi/9.2.1/thumb/v6-m/nofp/libgcc.a(divdf3.o)
 .rodata        0x000000000801b580       0x40 /usr/lib/gcc/arm-none-eabi/9.2.1/thumb/v6-m/nofp/libgcc.a(muldf3.o)
 .rodata        0x000000000801b5c0        0x4 /usr/lib/gcc/arm-none-eabi/9.2.1/../../../arm-none-eabi/lib/thumb/v6-m/nofp/libc.a(lib_a-impure.o)
                0x000000000801b5c0                _global_impure_ptr
 *(.rodata*)
                0x000000000801b5c4                . = ALIGN (0x4)

.ARM.extab      0x000000000801b5c4        0x0
 *(.ARM.extab* .gnu.linkonce.armextab.*)
 .ARM.extab     0x000000000801b5c4        0x0 /usr/lib/gcc/arm-none-eabi/9.2.1/../../../arm-none-eabi/lib/thumb/v6-m/nofp/crt0.o

.ARM            0x000000000801b5c4        0x8
                0x000000000801b5c4                __exidx_start = .
 *(.ARM.exidx*)
 .ARM.exidx     0x000000000801b5c4        0x8 /usr/lib/gcc/arm-none-eabi/9.2.1/../../../arm-none-eabi/lib/thumb/v6-m/nofp/crt0.o
                                         0x10 (size before relaxing)
                0x000000000801b5cc                __exidx_end = .

.rel.dyn        0x000000000801b5cc        0x0
 .rel.iplt      0x000000000801b5cc        0x0 /usr/lib/gcc/arm-none-eabi/9.2.1/thumb/v6-m/nofp/crtbegin.o

.preinit_array  0x000000000801b5cc        0x0
                0x000000000801b5cc                PROVIDE (__preinit_array_start = .)
 *(.preinit_array*)
                0x000000000801b5cc                PROVIDE (__preinit_array_end = .)

.init_array     0x000000000801b5cc        0x8
                0x000000000801b5cc                PROVIDE (__init_array_start = .)
 *(SORT_BY_NAME(.init_array.*))
 .init_array.00000
                0x000000000801b5cc        0x4 /usr/lib/gcc/arm-none-eabi/9.2.1/../../../arm-none-eabi/lib/thumb/v6-m/nofp/libc.a(lib_a-__call_atexit.o)
 *(.init_array*)
 .init_array    0x000000000801b5d0        0x4 /usr/lib/gcc/arm-none-eabi/9.2.1/thumb/v6-m/nofp/crtbegin.o
                0x000000000801b5d4                PROVIDE (__init_array_end = .)

.fini_array     0x000000000801b5d4        0x4
                0x000000000801b5d4                PROVIDE (__fini_array_start = .)
 *(SORT_BY_NAME(.fini_array.*))
 *(.fini_array*)
 .fini_array    0x000000000801b5d4        0x4 /usr/lib/gcc/arm-none-eabi/9.2.1/thumb/v6-m/nofp/crtbegin.o
                0x000000000801b5d8                PROVIDE (__fini_array_end = .)
                0x000000000801b5d8                _sidata = LOADADDR (.data)

.data           0x0000000020000000      0x868 load address 0x000000000801b5d8
                0x0000000020000000                . = ALIGN (0x4)
                0x0000000020000000                _sdata = .
 *(.data)
 .data          0x0000000020000000        0x0 /usr/lib/gcc/arm-none-eabi/9.2.1/thumb/v6-m/nofp/crti.o
 .data          0x0000000020000000        0x4 /usr/lib/gcc/arm-none-eabi/9.2.1/thumb/v6-m/nofp/crtbegin.o
                0x0000000020000000                __dso_handle
 .data          0x0000000020000004        0x0 /usr/lib/gcc/arm-none-eabi/9.2.1/../../../arm-none-eabi/lib/thumb/v6-m/nofp/crt0.o
 .data          0x0000000020000004        0x0 /f29bms/src/driver/HAL_Spi/test_STM32_HAL_Spi.o
 .data          0x0000000020000004        0x0 /f29bms/src/driver/HAL_Can/STM32_HAL_Can.o
 .data          0x0000000020000004        0x0 /f29bms/src/driver/HAL_CurrentSensor/STM32_HAL_CurrentSensor.o
 .data          0x0000000020000004        0x0 /f29bms/src/driver/HAL_EEPROM/STM32_HAL_EEPROM.o
 .data          0x0000000020000004        0x0 /f29bms/src/driver/HAL_Gpio/STM32_HAL_Gpio.o
 .data          0x0000000020000004        0x0 /f29bms/src/driver/HAL_SlaveChips/STM32_HAL_SlaveChips.o
 .data          0x0000000020000004        0x0 /f29bms/src/driver/HAL_Watchdog/STM32_HAL_Watchdog.o
 .data          0x0000000020000004        0x0 /f29bms/src/driver/HAL_Spi/STM32_HAL_Spi.o
 .data          0x0000000020000004        0x0 /f29bms/src/common/counters/STM32_counters.o
 .data          0x0000000020000004        0x0 /f29bms/libs/stm32libs/STM32F0xx_StdPeriph_Driver/src/stm32f0xx_adc.o
 .data          0x0000000020000004        0x0 /f29bms/libs/stm32libs/STM32F0xx_StdPeriph_Driver/src/stm32f0xx_can.o
 .data          0x0000000020000004        0x0 /f29bms/libs/stm32libs/STM32F0xx_StdPeriph_Driver/src/stm32f0xx_cec.o
 .data          0x0000000020000004        0x0 /f29bms/libs/stm32libs/STM32F0xx_StdPeriph_Driver/src/stm32f0xx_comp.o
 .data          0x0000000020000004        0x0 /f29bms/libs/stm32libs/STM32F0xx_StdPeriph_Driver/src/stm32f0xx_crc.o
 .data          0x0000000020000004        0x0 /f29bms/libs/stm32libs/STM32F0xx_StdPeriph_Driver/src/stm32f0xx_crs.o
 .data          0x0000000020000004        0x0 /f29bms/libs/stm32libs/STM32F0xx_StdPeriph_Driver/src/stm32f0xx_dac.o
 .data          0x0000000020000004        0x0 /f29bms/libs/stm32libs/STM32F0xx_StdPeriph_Driver/src/stm32f0xx_dbgmcu.o
 .data          0x0000000020000004        0x0 /f29bms/libs/stm32libs/STM32F0xx_StdPeriph_Driver/src/stm32f0xx_dma.o
 .data          0x0000000020000004        0x0 /f29bms/libs/stm32libs/STM32F0xx_StdPeriph_Driver/src/stm32f0xx_exti.o
 .data          0x0000000020000004        0x0 /f29bms/libs/stm32libs/STM32F0xx_StdPeriph_Driver/src/stm32f0xx_flash.o
 .data          0x0000000020000004        0x0 /f29bms/libs/stm32libs/STM32F0xx_StdPeriph_Driver/src/stm32f0xx_gpio.o
 .data          0x0000000020000004        0x0 /f29bms/libs/stm32libs/STM32F0xx_StdPeriph_Driver/src/stm32f0xx_i2c.o
 .data          0x0000000020000004        0x0 /f29bms/libs/stm32libs/STM32F0xx_StdPeriph_Driver/src/stm32f0xx_iwdg.o
 .data          0x0000000020000004        0x0 /f29bms/libs/stm32libs/STM32F0xx_StdPeriph_Driver/src/stm32f0xx_misc.o
 .data          0x0000000020000004        0x0 /f29bms/libs/stm32libs/STM32F0xx_StdPeriph_Driver/src/stm32f0xx_pwr.o
 .data          0x0000000020000004       0x10 /f29bms/libs/stm32libs/STM32F0xx_StdPeriph_Driver/src/stm32f0xx_rcc.o
 .data          0x0000000020000014        0x0 /f29bms/libs/stm32libs/STM32F0xx_StdPeriph_Driver/src/stm32f0xx_rtc.o
 .data          0x0000000020000014        0x0 /f29bms/libs/stm32libs/STM32F0xx_StdPeriph_Driver/src/stm32f0xx_spi.o
 .data          0x0000000020000014        0x0 /f29bms/libs/stm32libs/STM32F0xx_StdPeriph_Driver/src/stm32f0xx_syscfg.o
 .data          0x0000000020000014        0x0 /f29bms/libs/stm32libs/STM32F0xx_StdPeriph_Driver/src/stm32f0xx_tim.o
 .data          0x0000000020000014        0x0 /f29bms/libs/stm32libs/STM32F0xx_StdPeriph_Driver/src/stm32f0xx_usart.o
 .data          0x0000000020000014        0x0 /f29bms/libs/stm32libs/STM32F0xx_StdPeriph_Driver/src/stm32f0xx_wwdg.o
 .data          0x0000000020000014       0x14 /f29bms/libs/stm32libs/CMSIS/Device/ST/STM32F0xx/Source/Templates/system_stm32f0xx.o
                0x0000000020000014                SystemCoreClock
                0x0000000020000018                AHBPrescTable
 .data          0x0000000020000028        0x0 /f29bms/libs/stm32libs/CMSIS/Device/ST/STM32F0xx/Source/Templates/gcc_ride7/startup_stm32f0xx.o
 .data          0x0000000020000028        0x0 /f29bms/src/app/CAN/STM32_f29bms_dbc.o
 .data          0x0000000020000028        0x0 /usr/lib/gcc/arm-none-eabi/9.2.1/thumb/v6-m/nofp/libgcc.a(_udivsi3.o)
 .data          0x0000000020000028        0x0 /usr/lib/gcc/arm-none-eabi/9.2.1/thumb/v6-m/nofp/libgcc.a(_dvmd_tls.o)
 .data          0x0000000020000028        0x0 /usr/lib/gcc/arm-none-eabi/9.2.1/thumb/v6-m/nofp/libgcc.a(_muldi3.o)
 .data          0x0000000020000028        0x0 /usr/lib/gcc/arm-none-eabi/9.2.1/thumb/v6-m/nofp/libgcc.a(_fixunsdfsi.o)
 .data          0x0000000020000028        0x0 /usr/lib/gcc/arm-none-eabi/9.2.1/thumb/v6-m/nofp/libgcc.a(_fixunsdfdi.o)
 .data          0x0000000020000028        0x0 /usr/lib/gcc/arm-none-eabi/9.2.1/thumb/v6-m/nofp/libgcc.a(_floatundidf.o)
 .data          0x0000000020000028        0x0 /usr/lib/gcc/arm-none-eabi/9.2.1/thumb/v6-m/nofp/libgcc.a(divsf3.o)
 .data          0x0000000020000028        0x0 /usr/lib/gcc/arm-none-eabi/9.2.1/thumb/v6-m/nofp/libgcc.a(mulsf3.o)
 .data          0x0000000020000028        0x0 /usr/lib/gcc/arm-none-eabi/9.2.1/thumb/v6-m/nofp/libgcc.a(floatsisf.o)
 .data          0x0000000020000028        0x0 /usr/lib/gcc/arm-none-eabi/9.2.1/thumb/v6-m/nofp/libgcc.a(floatunsisf.o)
 .data          0x0000000020000028        0x0 /usr/lib/gcc/arm-none-eabi/9.2.1/thumb/v6-m/nofp/libgcc.a(adddf3.o)
 .data          0x0000000020000028        0x0 /usr/lib/gcc/arm-none-eabi/9.2.1/thumb/v6-m/nofp/libgcc.a(divdf3.o)
 .data          0x0000000020000028        0x0 /usr/lib/gcc/arm-none-eabi/9.2.1/thumb/v6-m/nofp/libgcc.a(muldf3.o)
 .data          0x0000000020000028        0x0 /usr/lib/gcc/arm-none-eabi/9.2.1/thumb/v6-m/nofp/libgcc.a(subdf3.o)
 .data          0x0000000020000028        0x0 /usr/lib/gcc/arm-none-eabi/9.2.1/thumb/v6-m/nofp/libgcc.a(fixdfsi.o)
 .data          0x0000000020000028        0x0 /usr/lib/gcc/arm-none-eabi/9.2.1/thumb/v6-m/nofp/libgcc.a(floatsidf.o)
 .data          0x0000000020000028        0x0 /usr/lib/gcc/arm-none-eabi/9.2.1/thumb/v6-m/nofp/libgcc.a(floatunsidf.o)
 .data          0x0000000020000028        0x0 /usr/lib/gcc/arm-none-eabi/9.2.1/thumb/v6-m/nofp/libgcc.a(extendsfdf2.o)
 .data          0x0000000020000028        0x0 /usr/lib/gcc/arm-none-eabi/9.2.1/thumb/v6-m/nofp/libgcc.a(truncdfsf2.o)
 .data          0x0000000020000028        0x0 /usr/lib/gcc/arm-none-eabi/9.2.1/thumb/v6-m/nofp/libgcc.a(_arm_cmpdf2.o)
 .data          0x0000000020000028        0x0 /usr/lib/gcc/arm-none-eabi/9.2.1/thumb/v6-m/nofp/libgcc.a(_clzsi2.o)
 .data          0x0000000020000028        0x0 /usr/lib/gcc/arm-none-eabi/9.2.1/thumb/v6-m/nofp/libgcc.a(eqdf2.o)
 .data          0x0000000020000028        0x0 /usr/lib/gcc/arm-none-eabi/9.2.1/thumb/v6-m/nofp/libgcc.a(gedf2.o)
 .data          0x0000000020000028        0x0 /usr/lib/gcc/arm-none-eabi/9.2.1/thumb/v6-m/nofp/libgcc.a(ledf2.o)
 .data          0x0000000020000028        0x0 /usr/lib/gcc/arm-none-eabi/9.2.1/../../../arm-none-eabi/lib/thumb/v6-m/nofp/libc.a(lib_a-atexit.o)
 .data          0x0000000020000028        0x0 /usr/lib/gcc/arm-none-eabi/9.2.1/../../../arm-none-eabi/lib/thumb/v6-m/nofp/libc.a(lib_a-exit.o)
 .data          0x0000000020000028        0x0 /usr/lib/gcc/arm-none-eabi/9.2.1/../../../arm-none-eabi/lib/thumb/v6-m/nofp/libc.a(lib_a-fini.o)
 .data          0x0000000020000028      0x430 /usr/lib/gcc/arm-none-eabi/9.2.1/../../../arm-none-eabi/lib/thumb/v6-m/nofp/libc.a(lib_a-impure.o)
                0x0000000020000028                _impure_ptr
 .data          0x0000000020000458        0x0 /usr/lib/gcc/arm-none-eabi/9.2.1/../../../arm-none-eabi/lib/thumb/v6-m/nofp/libc.a(lib_a-init.o)
 .data          0x0000000020000458        0x0 /usr/lib/gcc/arm-none-eabi/9.2.1/../../../arm-none-eabi/lib/thumb/v6-m/nofp/libc.a(lib_a-malloc.o)
 .data          0x0000000020000458      0x410 /usr/lib/gcc/arm-none-eabi/9.2.1/../../../arm-none-eabi/lib/thumb/v6-m/nofp/libc.a(lib_a-mallocr.o)
                0x0000000020000458                __malloc_sbrk_base
                0x000000002000045c                __malloc_trim_threshold
                0x0000000020000460                __malloc_av_
 .data          0x0000000020000868        0x0 /usr/lib/gcc/arm-none-eabi/9.2.1/../../../arm-none-eabi/lib/thumb/v6-m/nofp/libc.a(lib_a-memcpy-stub.o)
 .data          0x0000000020000868        0x0 /usr/lib/gcc/arm-none-eabi/9.2.1/../../../arm-none-eabi/lib/thumb/v6-m/nofp/libc.a(lib_a-memset.o)
 .data          0x0000000020000868        0x0 /usr/lib/gcc/arm-none-eabi/9.2.1/../../../arm-none-eabi/lib/thumb/v6-m/nofp/libc.a(lib_a-mlock.o)
 .data          0x0000000020000868        0x0 /usr/lib/gcc/arm-none-eabi/9.2.1/../../../arm-none-eabi/lib/thumb/v6-m/nofp/libc.a(lib_a-sbrkr.o)
 .data          0x0000000020000868        0x0 /usr/lib/gcc/arm-none-eabi/9.2.1/../../../arm-none-eabi/lib/thumb/v6-m/nofp/libc.a(lib_a-__atexit.o)
 .data          0x0000000020000868        0x0 /usr/lib/gcc/arm-none-eabi/9.2.1/../../../arm-none-eabi/lib/thumb/v6-m/nofp/libc.a(lib_a-__call_atexit.o)
 .data          0x0000000020000868        0x0 /usr/lib/gcc/arm-none-eabi/9.2.1/../../../arm-none-eabi/lib/thumb/v6-m/nofp/libc.a(lib_a-freer.o)
 .data          0x0000000020000868        0x0 /usr/lib/gcc/arm-none-eabi/9.2.1/../../../arm-none-eabi/lib/thumb/v6-m/nofp/libc.a(lib_a-reent.o)
 .data          0x0000000020000868        0x0 /usr/lib/gcc/arm-none-eabi/9.2.1/../../../arm-none-eabi/lib/thumb/v6-m/nofp/libnosys.a(sbrk.o)
 .data          0x0000000020000868        0x0 /usr/lib/gcc/arm-none-eabi/9.2.1/../../../arm-none-eabi/lib/thumb/v6-m/nofp/libnosys.a(_exit.o)
 .data          0x0000000020000868        0x0 /usr/lib/gcc/arm-none-eabi/9.2.1/thumb/v6-m/nofp/crtend.o
 .data          0x0000000020000868        0x0 /usr/lib/gcc/arm-none-eabi/9.2.1/thumb/v6-m/nofp/crtn.o
 *(.data*)
                0x0000000020000868                . = ALIGN (0x4)
                0x0000000020000868                _edata = .

.tm_clone_table
                0x0000000020000868        0x0 load address 0x000000000801be40
 .tm_clone_table
                0x0000000020000868        0x0 /usr/lib/gcc/arm-none-eabi/9.2.1/thumb/v6-m/nofp/crtbegin.o
 .tm_clone_table
                0x0000000020000868        0x0 /usr/lib/gcc/arm-none-eabi/9.2.1/thumb/v6-m/nofp/crtend.o

.igot.plt       0x0000000020000868        0x0 load address 0x000000000801be40
 .igot.plt      0x0000000020000868        0x0 /usr/lib/gcc/arm-none-eabi/9.2.1/thumb/v6-m/nofp/crtbegin.o
                0x0000000020000868                . = ALIGN (0x4)

.bss            0x0000000020000868       0x60 load address 0x000000000801be40
                0x0000000020000868                _sbss = .
                0x0000000020000868                __bss_start__ = _sbss
 *(.bss)
 .bss           0x0000000020000868        0x0 /usr/lib/gcc/arm-none-eabi/9.2.1/thumb/v6-m/nofp/crti.o
 .bss           0x0000000020000868       0x1c /usr/lib/gcc/arm-none-eabi/9.2.1/thumb/v6-m/nofp/crtbegin.o
 .bss           0x0000000020000884        0x0 /usr/lib/gcc/arm-none-eabi/9.2.1/../../../arm-none-eabi/lib/thumb/v6-m/nofp/crt0.o
 .bss           0x0000000020000884        0x0 /f29bms/src/driver/HAL_Spi/test_STM32_HAL_Spi.o
 .bss           0x0000000020000884        0x0 /f29bms/src/driver/HAL_Can/STM32_HAL_Can.o
 .bss           0x0000000020000884        0x0 /f29bms/src/driver/HAL_CurrentSensor/STM32_HAL_CurrentSensor.o
 .bss           0x0000000020000884        0x0 /f29bms/src/driver/HAL_EEPROM/STM32_HAL_EEPROM.o
 .bss           0x0000000020000884        0x0 /f29bms/src/driver/HAL_Gpio/STM32_HAL_Gpio.o
 .bss           0x0000000020000884        0x0 /f29bms/src/driver/HAL_SlaveChips/STM32_HAL_SlaveChips.o
 .bss           0x0000000020000884        0x0 /f29bms/src/driver/HAL_Watchdog/STM32_HAL_Watchdog.o
 .bss           0x0000000020000884        0x0 /f29bms/src/driver/HAL_Spi/STM32_HAL_Spi.o
 .bss           0x0000000020000884        0x0 /f29bms/src/common/counters/STM32_counters.o
 .bss           0x0000000020000884        0x0 /f29bms/libs/stm32libs/STM32F0xx_StdPeriph_Driver/src/stm32f0xx_adc.o
 .bss           0x0000000020000884        0x0 /f29bms/libs/stm32libs/STM32F0xx_StdPeriph_Driver/src/stm32f0xx_can.o
 .bss           0x0000000020000884        0x0 /f29bms/libs/stm32libs/STM32F0xx_StdPeriph_Driver/src/stm32f0xx_cec.o
 .bss           0x0000000020000884        0x0 /f29bms/libs/stm32libs/STM32F0xx_StdPeriph_Driver/src/stm32f0xx_comp.o
 .bss           0x0000000020000884        0x0 /f29bms/libs/stm32libs/STM32F0xx_StdPeriph_Driver/src/stm32f0xx_crc.o
 .bss           0x0000000020000884        0x0 /f29bms/libs/stm32libs/STM32F0xx_StdPeriph_Driver/src/stm32f0xx_crs.o
 .bss           0x0000000020000884        0x0 /f29bms/libs/stm32libs/STM32F0xx_StdPeriph_Driver/src/stm32f0xx_dac.o
 .bss           0x0000000020000884        0x0 /f29bms/libs/stm32libs/STM32F0xx_StdPeriph_Driver/src/stm32f0xx_dbgmcu.o
 .bss           0x0000000020000884        0x0 /f29bms/libs/stm32libs/STM32F0xx_StdPeriph_Driver/src/stm32f0xx_dma.o
 .bss           0x0000000020000884        0x0 /f29bms/libs/stm32libs/STM32F0xx_StdPeriph_Driver/src/stm32f0xx_exti.o
 .bss           0x0000000020000884        0x0 /f29bms/libs/stm32libs/STM32F0xx_StdPeriph_Driver/src/stm32f0xx_flash.o
 .bss           0x0000000020000884        0x0 /f29bms/libs/stm32libs/STM32F0xx_StdPeriph_Driver/src/stm32f0xx_gpio.o
 .bss           0x0000000020000884        0x0 /f29bms/libs/stm32libs/STM32F0xx_StdPeriph_Driver/src/stm32f0xx_i2c.o
 .bss           0x0000000020000884        0x0 /f29bms/libs/stm32libs/STM32F0xx_StdPeriph_Driver/src/stm32f0xx_iwdg.o
 .bss           0x0000000020000884        0x0 /f29bms/libs/stm32libs/STM32F0xx_StdPeriph_Driver/src/stm32f0xx_misc.o
 .bss           0x0000000020000884        0x0 /f29bms/libs/stm32libs/STM32F0xx_StdPeriph_Driver/src/stm32f0xx_pwr.o
 .bss           0x0000000020000884        0x0 /f29bms/libs/stm32libs/STM32F0xx_StdPeriph_Driver/src/stm32f0xx_rcc.o
 .bss           0x0000000020000884        0x0 /f29bms/libs/stm32libs/STM32F0xx_StdPeriph_Driver/src/stm32f0xx_rtc.o
 .bss           0x0000000020000884        0x0 /f29bms/libs/stm32libs/STM32F0xx_StdPeriph_Driver/src/stm32f0xx_spi.o
 .bss           0x0000000020000884        0x0 /f29bms/libs/stm32libs/STM32F0xx_StdPeriph_Driver/src/stm32f0xx_syscfg.o
 .bss           0x0000000020000884        0x0 /f29bms/libs/stm32libs/STM32F0xx_StdPeriph_Driver/src/stm32f0xx_tim.o
 .bss           0x0000000020000884        0x0 /f29bms/libs/stm32libs/STM32F0xx_StdPeriph_Driver/src/stm32f0xx_usart.o
 .bss           0x0000000020000884        0x0 /f29bms/libs/stm32libs/STM32F0xx_StdPeriph_Driver/src/stm32f0xx_wwdg.o
 .bss           0x0000000020000884        0x0 /f29bms/libs/stm32libs/CMSIS/Device/ST/STM32F0xx/Source/Templates/system_stm32f0xx.o
 .bss           0x0000000020000884        0x0 /f29bms/libs/stm32libs/CMSIS/Device/ST/STM32F0xx/Source/Templates/gcc_ride7/startup_stm32f0xx.o
 .bss           0x0000000020000884        0x0 /f29bms/src/app/CAN/STM32_f29bms_dbc.o
 .bss           0x0000000020000884        0x0 /usr/lib/gcc/arm-none-eabi/9.2.1/thumb/v6-m/nofp/libgcc.a(_udivsi3.o)
 .bss           0x0000000020000884        0x0 /usr/lib/gcc/arm-none-eabi/9.2.1/thumb/v6-m/nofp/libgcc.a(_dvmd_tls.o)
 .bss           0x0000000020000884        0x0 /usr/lib/gcc/arm-none-eabi/9.2.1/thumb/v6-m/nofp/libgcc.a(_muldi3.o)
 .bss           0x0000000020000884        0x0 /usr/lib/gcc/arm-none-eabi/9.2.1/thumb/v6-m/nofp/libgcc.a(_fixunsdfsi.o)
 .bss           0x0000000020000884        0x0 /usr/lib/gcc/arm-none-eabi/9.2.1/thumb/v6-m/nofp/libgcc.a(_fixunsdfdi.o)
 .bss           0x0000000020000884        0x0 /usr/lib/gcc/arm-none-eabi/9.2.1/thumb/v6-m/nofp/libgcc.a(_floatundidf.o)
 .bss           0x0000000020000884        0x0 /usr/lib/gcc/arm-none-eabi/9.2.1/thumb/v6-m/nofp/libgcc.a(divsf3.o)
 .bss           0x0000000020000884        0x0 /usr/lib/gcc/arm-none-eabi/9.2.1/thumb/v6-m/nofp/libgcc.a(mulsf3.o)
 .bss           0x0000000020000884        0x0 /usr/lib/gcc/arm-none-eabi/9.2.1/thumb/v6-m/nofp/libgcc.a(floatsisf.o)
 .bss           0x0000000020000884        0x0 /usr/lib/gcc/arm-none-eabi/9.2.1/thumb/v6-m/nofp/libgcc.a(floatunsisf.o)
 .bss           0x0000000020000884        0x0 /usr/lib/gcc/arm-none-eabi/9.2.1/thumb/v6-m/nofp/libgcc.a(adddf3.o)
 .bss           0x0000000020000884        0x0 /usr/lib/gcc/arm-none-eabi/9.2.1/thumb/v6-m/nofp/libgcc.a(divdf3.o)
 .bss           0x0000000020000884        0x0 /usr/lib/gcc/arm-none-eabi/9.2.1/thumb/v6-m/nofp/libgcc.a(muldf3.o)
 .bss           0x0000000020000884        0x0 /usr/lib/gcc/arm-none-eabi/9.2.1/thumb/v6-m/nofp/libgcc.a(subdf3.o)
 .bss           0x0000000020000884        0x0 /usr/lib/gcc/arm-none-eabi/9.2.1/thumb/v6-m/nofp/libgcc.a(fixdfsi.o)
 .bss           0x0000000020000884        0x0 /usr/lib/gcc/arm-none-eabi/9.2.1/thumb/v6-m/nofp/libgcc.a(floatsidf.o)
 .bss           0x0000000020000884        0x0 /usr/lib/gcc/arm-none-eabi/9.2.1/thumb/v6-m/nofp/libgcc.a(floatunsidf.o)
 .bss           0x0000000020000884        0x0 /usr/lib/gcc/arm-none-eabi/9.2.1/thumb/v6-m/nofp/libgcc.a(extendsfdf2.o)
 .bss           0x0000000020000884        0x0 /usr/lib/gcc/arm-none-eabi/9.2.1/thumb/v6-m/nofp/libgcc.a(truncdfsf2.o)
 .bss           0x0000000020000884        0x0 /usr/lib/gcc/arm-none-eabi/9.2.1/thumb/v6-m/nofp/libgcc.a(_arm_cmpdf2.o)
 .bss           0x0000000020000884        0x0 /usr/lib/gcc/arm-none-eabi/9.2.1/thumb/v6-m/nofp/libgcc.a(_clzsi2.o)
 .bss           0x0000000020000884        0x0 /usr/lib/gcc/arm-none-eabi/9.2.1/thumb/v6-m/nofp/libgcc.a(eqdf2.o)
 .bss           0x0000000020000884        0x0 /usr/lib/gcc/arm-none-eabi/9.2.1/thumb/v6-m/nofp/libgcc.a(gedf2.o)
 .bss           0x0000000020000884        0x0 /usr/lib/gcc/arm-none-eabi/9.2.1/thumb/v6-m/nofp/libgcc.a(ledf2.o)
 .bss           0x0000000020000884        0x0 /usr/lib/gcc/arm-none-eabi/9.2.1/../../../arm-none-eabi/lib/thumb/v6-m/nofp/libc.a(lib_a-atexit.o)
 .bss           0x0000000020000884        0x0 /usr/lib/gcc/arm-none-eabi/9.2.1/../../../arm-none-eabi/lib/thumb/v6-m/nofp/libc.a(lib_a-exit.o)
 .bss           0x0000000020000884        0x0 /usr/lib/gcc/arm-none-eabi/9.2.1/../../../arm-none-eabi/lib/thumb/v6-m/nofp/libc.a(lib_a-fini.o)
 .bss           0x0000000020000884        0x0 /usr/lib/gcc/arm-none-eabi/9.2.1/../../../arm-none-eabi/lib/thumb/v6-m/nofp/libc.a(lib_a-impure.o)
 .bss           0x0000000020000884        0x0 /usr/lib/gcc/arm-none-eabi/9.2.1/../../../arm-none-eabi/lib/thumb/v6-m/nofp/libc.a(lib_a-init.o)
 .bss           0x0000000020000884        0x0 /usr/lib/gcc/arm-none-eabi/9.2.1/../../../arm-none-eabi/lib/thumb/v6-m/nofp/libc.a(lib_a-malloc.o)
 .bss           0x0000000020000884       0x34 /usr/lib/gcc/arm-none-eabi/9.2.1/../../../arm-none-eabi/lib/thumb/v6-m/nofp/libc.a(lib_a-mallocr.o)
                0x0000000020000884                __malloc_top_pad
                0x0000000020000888                __malloc_current_mallinfo
                0x00000000200008b0                __malloc_max_sbrked_mem
                0x00000000200008b4                __malloc_max_total_mem
 .bss           0x00000000200008b8        0x0 /usr/lib/gcc/arm-none-eabi/9.2.1/../../../arm-none-eabi/lib/thumb/v6-m/nofp/libc.a(lib_a-memcpy-stub.o)
 .bss           0x00000000200008b8        0x0 /usr/lib/gcc/arm-none-eabi/9.2.1/../../../arm-none-eabi/lib/thumb/v6-m/nofp/libc.a(lib_a-memset.o)
 .bss           0x00000000200008b8        0x0 /usr/lib/gcc/arm-none-eabi/9.2.1/../../../arm-none-eabi/lib/thumb/v6-m/nofp/libc.a(lib_a-mlock.o)
 .bss           0x00000000200008b8        0x0 /usr/lib/gcc/arm-none-eabi/9.2.1/../../../arm-none-eabi/lib/thumb/v6-m/nofp/libc.a(lib_a-sbrkr.o)
 .bss           0x00000000200008b8        0x0 /usr/lib/gcc/arm-none-eabi/9.2.1/../../../arm-none-eabi/lib/thumb/v6-m/nofp/libc.a(lib_a-__atexit.o)
 .bss           0x00000000200008b8        0x0 /usr/lib/gcc/arm-none-eabi/9.2.1/../../../arm-none-eabi/lib/thumb/v6-m/nofp/libc.a(lib_a-__call_atexit.o)
 .bss           0x00000000200008b8        0x0 /usr/lib/gcc/arm-none-eabi/9.2.1/../../../arm-none-eabi/lib/thumb/v6-m/nofp/libc.a(lib_a-freer.o)
 .bss           0x00000000200008b8        0x0 /usr/lib/gcc/arm-none-eabi/9.2.1/../../../arm-none-eabi/lib/thumb/v6-m/nofp/libc.a(lib_a-reent.o)
 .bss           0x00000000200008b8        0x4 /usr/lib/gcc/arm-none-eabi/9.2.1/../../../arm-none-eabi/lib/thumb/v6-m/nofp/libnosys.a(sbrk.o)
 .bss           0x00000000200008bc        0x0 /usr/lib/gcc/arm-none-eabi/9.2.1/../../../arm-none-eabi/lib/thumb/v6-m/nofp/libnosys.a(_exit.o)
 .bss           0x00000000200008bc        0x0 /usr/lib/gcc/arm-none-eabi/9.2.1/thumb/v6-m/nofp/crtend.o
 .bss           0x00000000200008bc        0x0 /usr/lib/gcc/arm-none-eabi/9.2.1/thumb/v6-m/nofp/crtn.o
 *(.bss*)
 *(COMMON)
 COMMON         0x00000000200008bc        0x6 /f29bms/src/driver/HAL_SlaveChips/STM32_HAL_SlaveChips.o
                0x00000000200008bc                ADCV
                0x00000000200008c0                ADAX
 *fill*         0x00000000200008c2        0x2 
 COMMON         0x00000000200008c4        0x4 /usr/lib/gcc/arm-none-eabi/9.2.1/../../../arm-none-eabi/lib/thumb/v6-m/nofp/libc.a(lib_a-reent.o)
                0x00000000200008c4                errno
                0x00000000200008c8                . = ALIGN (0x4)
                0x00000000200008c8                _ebss = .
                0x00000000200008c8                __bss_end__ = _ebss

._user_heap_stack
                0x00000000200008c8      0x600 load address 0x000000000801be40
                0x00000000200008c8                . = ALIGN (0x8)
                0x00000000200008c8                PROVIDE (end = .)
                [!provide]                        PROVIDE (_end = .)
                0x0000000020000ac8                . = (. + _Min_Heap_Size)
 *fill*         0x00000000200008c8      0x200 
                0x0000000020000ec8                . = (. + _Min_Stack_Size)
 *fill*         0x0000000020000ac8      0x400 
                0x0000000020000ec8                . = ALIGN (0x8)

.ARM.attributes
                0x0000000000000000       0x28
 *(.ARM.attributes)
 .ARM.attributes
                0x0000000000000000       0x1e /usr/lib/gcc/arm-none-eabi/9.2.1/thumb/v6-m/nofp/crti.o
 .ARM.attributes
                0x000000000000001e       0x2c /usr/lib/gcc/arm-none-eabi/9.2.1/thumb/v6-m/nofp/crtbegin.o
 .ARM.attributes
                0x000000000000004a       0x1b /usr/lib/gcc/arm-none-eabi/9.2.1/../../../arm-none-eabi/lib/thumb/v6-m/nofp/crt0.o
 .ARM.attributes
                0x0000000000000065       0x2c /f29bms/src/driver/HAL_Spi/test_STM32_HAL_Spi.o
 .ARM.attributes
                0x0000000000000091       0x2c /f29bms/src/driver/HAL_Can/STM32_HAL_Can.o
 .ARM.attributes
                0x00000000000000bd       0x2c /f29bms/src/driver/HAL_CurrentSensor/STM32_HAL_CurrentSensor.o
 .ARM.attributes
                0x00000000000000e9       0x31 /f29bms/src/driver/HAL_EEPROM/STM32_HAL_EEPROM.o
 .ARM.attributes
                0x000000000000011a       0x2c /f29bms/src/driver/HAL_Gpio/STM32_HAL_Gpio.o
 .ARM.attributes
                0x0000000000000146       0x2c /f29bms/src/driver/HAL_SlaveChips/STM32_HAL_SlaveChips.o
 .ARM.attributes
                0x0000000000000172       0x2c /f29bms/src/driver/HAL_Watchdog/STM32_HAL_Watchdog.o
 .ARM.attributes
                0x000000000000019e       0x2c /f29bms/src/driver/HAL_Spi/STM32_HAL_Spi.o
 .ARM.attributes
                0x00000000000001ca       0x2c /f29bms/src/common/counters/STM32_counters.o
 .ARM.attributes
                0x00000000000001f6       0x2c /f29bms/libs/stm32libs/STM32F0xx_StdPeriph_Driver/src/stm32f0xx_adc.o
 .ARM.attributes
                0x0000000000000222       0x2c /f29bms/libs/stm32libs/STM32F0xx_StdPeriph_Driver/src/stm32f0xx_can.o
 .ARM.attributes
                0x000000000000024e       0x2c /f29bms/libs/stm32libs/STM32F0xx_StdPeriph_Driver/src/stm32f0xx_cec.o
 .ARM.attributes
                0x000000000000027a       0x2c /f29bms/libs/stm32libs/STM32F0xx_StdPeriph_Driver/src/stm32f0xx_comp.o
 .ARM.attributes
                0x00000000000002a6       0x2c /f29bms/libs/stm32libs/STM32F0xx_StdPeriph_Driver/src/stm32f0xx_crc.o
 .ARM.attributes
                0x00000000000002d2       0x2c /f29bms/libs/stm32libs/STM32F0xx_StdPeriph_Driver/src/stm32f0xx_crs.o
 .ARM.attributes
                0x00000000000002fe       0x2c /f29bms/libs/stm32libs/STM32F0xx_StdPeriph_Driver/src/stm32f0xx_dac.o
 .ARM.attributes
                0x000000000000032a       0x2c /f29bms/libs/stm32libs/STM32F0xx_StdPeriph_Driver/src/stm32f0xx_dbgmcu.o
 .ARM.attributes
                0x0000000000000356       0x2c /f29bms/libs/stm32libs/STM32F0xx_StdPeriph_Driver/src/stm32f0xx_dma.o
 .ARM.attributes
                0x0000000000000382       0x2c /f29bms/libs/stm32libs/STM32F0xx_StdPeriph_Driver/src/stm32f0xx_exti.o
 .ARM.attributes
                0x00000000000003ae       0x2c /f29bms/libs/stm32libs/STM32F0xx_StdPeriph_Driver/src/stm32f0xx_flash.o
 .ARM.attributes
                0x00000000000003da       0x2c /f29bms/libs/stm32libs/STM32F0xx_StdPeriph_Driver/src/stm32f0xx_gpio.o
 .ARM.attributes
                0x0000000000000406       0x2c /f29bms/libs/stm32libs/STM32F0xx_StdPeriph_Driver/src/stm32f0xx_i2c.o
 .ARM.attributes
                0x0000000000000432       0x2c /f29bms/libs/stm32libs/STM32F0xx_StdPeriph_Driver/src/stm32f0xx_iwdg.o
 .ARM.attributes
                0x000000000000045e       0x2c /f29bms/libs/stm32libs/STM32F0xx_StdPeriph_Driver/src/stm32f0xx_misc.o
 .ARM.attributes
                0x000000000000048a       0x2c /f29bms/libs/stm32libs/STM32F0xx_StdPeriph_Driver/src/stm32f0xx_pwr.o
 .ARM.attributes
                0x00000000000004b6       0x2c /f29bms/libs/stm32libs/STM32F0xx_StdPeriph_Driver/src/stm32f0xx_rcc.o
 .ARM.attributes
                0x00000000000004e2       0x2c /f29bms/libs/stm32libs/STM32F0xx_StdPeriph_Driver/src/stm32f0xx_rtc.o
 .ARM.attributes
                0x000000000000050e       0x2c /f29bms/libs/stm32libs/STM32F0xx_StdPeriph_Driver/src/stm32f0xx_spi.o
 .ARM.attributes
                0x000000000000053a       0x2c /f29bms/libs/stm32libs/STM32F0xx_StdPeriph_Driver/src/stm32f0xx_syscfg.o
 .ARM.attributes
                0x0000000000000566       0x2c /f29bms/libs/stm32libs/STM32F0xx_StdPeriph_Driver/src/stm32f0xx_tim.o
 .ARM.attributes
                0x0000000000000592       0x2c /f29bms/libs/stm32libs/STM32F0xx_StdPeriph_Driver/src/stm32f0xx_usart.o
 .ARM.attributes
                0x00000000000005be       0x2c /f29bms/libs/stm32libs/STM32F0xx_StdPeriph_Driver/src/stm32f0xx_wwdg.o
 .ARM.attributes
                0x00000000000005ea       0x2c /f29bms/libs/stm32libs/CMSIS/Device/ST/STM32F0xx/Source/Templates/system_stm32f0xx.o
 .ARM.attributes
                0x0000000000000616       0x21 /f29bms/libs/stm32libs/CMSIS/Device/ST/STM32F0xx/Source/Templates/gcc_ride7/startup_stm32f0xx.o
 .ARM.attributes
                0x0000000000000637       0x2c /f29bms/src/app/CAN/STM32_f29bms_dbc.o
 .ARM.attributes
                0x0000000000000663       0x1e /usr/lib/gcc/arm-none-eabi/9.2.1/thumb/v6-m/nofp/libgcc.a(_udivsi3.o)
 .ARM.attributes
                0x0000000000000681       0x1e /usr/lib/gcc/arm-none-eabi/9.2.1/thumb/v6-m/nofp/libgcc.a(_dvmd_tls.o)
 .ARM.attributes
                0x000000000000069f       0x2c /usr/lib/gcc/arm-none-eabi/9.2.1/thumb/v6-m/nofp/libgcc.a(_muldi3.o)
 .ARM.attributes
                0x00000000000006cb       0x2c /usr/lib/gcc/arm-none-eabi/9.2.1/thumb/v6-m/nofp/libgcc.a(_fixunsdfsi.o)
 .ARM.attributes
                0x00000000000006f7       0x2c /usr/lib/gcc/arm-none-eabi/9.2.1/thumb/v6-m/nofp/libgcc.a(_fixunsdfdi.o)
 .ARM.attributes
                0x0000000000000723       0x2c /usr/lib/gcc/arm-none-eabi/9.2.1/thumb/v6-m/nofp/libgcc.a(_floatundidf.o)
 .ARM.attributes
                0x000000000000074f       0x2c /usr/lib/gcc/arm-none-eabi/9.2.1/thumb/v6-m/nofp/libgcc.a(divsf3.o)
 .ARM.attributes
                0x000000000000077b       0x2c /usr/lib/gcc/arm-none-eabi/9.2.1/thumb/v6-m/nofp/libgcc.a(mulsf3.o)
 .ARM.attributes
                0x00000000000007a7       0x2c /usr/lib/gcc/arm-none-eabi/9.2.1/thumb/v6-m/nofp/libgcc.a(floatsisf.o)
 .ARM.attributes
                0x00000000000007d3       0x2c /usr/lib/gcc/arm-none-eabi/9.2.1/thumb/v6-m/nofp/libgcc.a(floatunsisf.o)
 .ARM.attributes
                0x00000000000007ff       0x2c /usr/lib/gcc/arm-none-eabi/9.2.1/thumb/v6-m/nofp/libgcc.a(adddf3.o)
 .ARM.attributes
                0x000000000000082b       0x2c /usr/lib/gcc/arm-none-eabi/9.2.1/thumb/v6-m/nofp/libgcc.a(divdf3.o)
 .ARM.attributes
                0x0000000000000857       0x2c /usr/lib/gcc/arm-none-eabi/9.2.1/thumb/v6-m/nofp/libgcc.a(muldf3.o)
 .ARM.attributes
                0x0000000000000883       0x2c /usr/lib/gcc/arm-none-eabi/9.2.1/thumb/v6-m/nofp/libgcc.a(subdf3.o)
 .ARM.attributes
                0x00000000000008af       0x2c /usr/lib/gcc/arm-none-eabi/9.2.1/thumb/v6-m/nofp/libgcc.a(fixdfsi.o)
 .ARM.attributes
                0x00000000000008db       0x2c /usr/lib/gcc/arm-none-eabi/9.2.1/thumb/v6-m/nofp/libgcc.a(floatsidf.o)
 .ARM.attributes
                0x0000000000000907       0x2c /usr/lib/gcc/arm-none-eabi/9.2.1/thumb/v6-m/nofp/libgcc.a(floatunsidf.o)
 .ARM.attributes
                0x0000000000000933       0x2c /usr/lib/gcc/arm-none-eabi/9.2.1/thumb/v6-m/nofp/libgcc.a(extendsfdf2.o)
 .ARM.attributes
                0x000000000000095f       0x2c /usr/lib/gcc/arm-none-eabi/9.2.1/thumb/v6-m/nofp/libgcc.a(truncdfsf2.o)
 .ARM.attributes
                0x000000000000098b       0x1e /usr/lib/gcc/arm-none-eabi/9.2.1/thumb/v6-m/nofp/libgcc.a(_arm_cmpdf2.o)
 .ARM.attributes
                0x00000000000009a9       0x1e /usr/lib/gcc/arm-none-eabi/9.2.1/thumb/v6-m/nofp/libgcc.a(_clzsi2.o)
 .ARM.attributes
                0x00000000000009c7       0x2c /usr/lib/gcc/arm-none-eabi/9.2.1/thumb/v6-m/nofp/libgcc.a(eqdf2.o)
 .ARM.attributes
                0x00000000000009f3       0x2c /usr/lib/gcc/arm-none-eabi/9.2.1/thumb/v6-m/nofp/libgcc.a(gedf2.o)
 .ARM.attributes
                0x0000000000000a1f       0x2c /usr/lib/gcc/arm-none-eabi/9.2.1/thumb/v6-m/nofp/libgcc.a(ledf2.o)
 .ARM.attributes
                0x0000000000000a4b       0x2c /usr/lib/gcc/arm-none-eabi/9.2.1/../../../arm-none-eabi/lib/thumb/v6-m/nofp/libc.a(lib_a-atexit.o)
 .ARM.attributes
                0x0000000000000a77       0x2c /usr/lib/gcc/arm-none-eabi/9.2.1/../../../arm-none-eabi/lib/thumb/v6-m/nofp/libc.a(lib_a-exit.o)
 .ARM.attributes
                0x0000000000000aa3       0x2c /usr/lib/gcc/arm-none-eabi/9.2.1/../../../arm-none-eabi/lib/thumb/v6-m/nofp/libc.a(lib_a-fini.o)
 .ARM.attributes
                0x0000000000000acf       0x2c /usr/lib/gcc/arm-none-eabi/9.2.1/../../../arm-none-eabi/lib/thumb/v6-m/nofp/libc.a(lib_a-impure.o)
 .ARM.attributes
                0x0000000000000afb       0x2c /usr/lib/gcc/arm-none-eabi/9.2.1/../../../arm-none-eabi/lib/thumb/v6-m/nofp/libc.a(lib_a-init.o)
 .ARM.attributes
                0x0000000000000b27       0x2c /usr/lib/gcc/arm-none-eabi/9.2.1/../../../arm-none-eabi/lib/thumb/v6-m/nofp/libc.a(lib_a-malloc.o)
 .ARM.attributes
                0x0000000000000b53       0x2c /usr/lib/gcc/arm-none-eabi/9.2.1/../../../arm-none-eabi/lib/thumb/v6-m/nofp/libc.a(lib_a-mallocr.o)
 .ARM.attributes
                0x0000000000000b7f       0x2c /usr/lib/gcc/arm-none-eabi/9.2.1/../../../arm-none-eabi/lib/thumb/v6-m/nofp/libc.a(lib_a-memcpy-stub.o)
 .ARM.attributes
                0x0000000000000bab       0x2c /usr/lib/gcc/arm-none-eabi/9.2.1/../../../arm-none-eabi/lib/thumb/v6-m/nofp/libc.a(lib_a-memset.o)
 .ARM.attributes
                0x0000000000000bd7       0x2c /usr/lib/gcc/arm-none-eabi/9.2.1/../../../arm-none-eabi/lib/thumb/v6-m/nofp/libc.a(lib_a-mlock.o)
 .ARM.attributes
                0x0000000000000c03       0x2c /usr/lib/gcc/arm-none-eabi/9.2.1/../../../arm-none-eabi/lib/thumb/v6-m/nofp/libc.a(lib_a-sbrkr.o)
 .ARM.attributes
                0x0000000000000c2f       0x2c /usr/lib/gcc/arm-none-eabi/9.2.1/../../../arm-none-eabi/lib/thumb/v6-m/nofp/libc.a(lib_a-__atexit.o)
 .ARM.attributes
                0x0000000000000c5b       0x2c /usr/lib/gcc/arm-none-eabi/9.2.1/../../../arm-none-eabi/lib/thumb/v6-m/nofp/libc.a(lib_a-__call_atexit.o)
 .ARM.attributes
                0x0000000000000c87       0x2c /usr/lib/gcc/arm-none-eabi/9.2.1/../../../arm-none-eabi/lib/thumb/v6-m/nofp/libc.a(lib_a-freer.o)
 .ARM.attributes
                0x0000000000000cb3       0x2c /usr/lib/gcc/arm-none-eabi/9.2.1/../../../arm-none-eabi/lib/thumb/v6-m/nofp/libc.a(lib_a-reent.o)
 .ARM.attributes
                0x0000000000000cdf       0x2c /usr/lib/gcc/arm-none-eabi/9.2.1/../../../arm-none-eabi/lib/thumb/v6-m/nofp/libnosys.a(sbrk.o)
 .ARM.attributes
                0x0000000000000d0b       0x2c /usr/lib/gcc/arm-none-eabi/9.2.1/../../../arm-none-eabi/lib/thumb/v6-m/nofp/libnosys.a(_exit.o)
 .ARM.attributes
                0x0000000000000d37       0x2c /usr/lib/gcc/arm-none-eabi/9.2.1/thumb/v6-m/nofp/crtend.o
 .ARM.attributes
                0x0000000000000d63       0x1e /usr/lib/gcc/arm-none-eabi/9.2.1/thumb/v6-m/nofp/crtn.o
OUTPUT(/f29bms/src/driver/HAL_Spi/test_STM32_HAL_Spi.elf elf32-littlearm)
LOAD linker stubs

.comment        0x0000000000000000       0xa7
 .comment       0x0000000000000000       0x59 /usr/lib/gcc/arm-none-eabi/9.2.1/thumb/v6-m/nofp/crtbegin.o
                                         0x5a (size before relaxing)
 .comment       0x0000000000000059       0x5a /f29bms/src/driver/HAL_Spi/test_STM32_HAL_Spi.o
 .comment       0x0000000000000059       0x5a /f29bms/src/driver/HAL_Can/STM32_HAL_Can.o
 .comment       0x0000000000000059       0x5a /f29bms/src/driver/HAL_CurrentSensor/STM32_HAL_CurrentSensor.o
 .comment       0x0000000000000059       0x5a /f29bms/src/driver/HAL_EEPROM/STM32_HAL_EEPROM.o
 .comment       0x0000000000000059       0x5a /f29bms/src/driver/HAL_Gpio/STM32_HAL_Gpio.o
 .comment       0x0000000000000059       0x5a /f29bms/src/driver/HAL_SlaveChips/STM32_HAL_SlaveChips.o
 .comment       0x0000000000000059       0x5a /f29bms/src/driver/HAL_Watchdog/STM32_HAL_Watchdog.o
 .comment       0x0000000000000059       0x5a /f29bms/src/driver/HAL_Spi/STM32_HAL_Spi.o
 .comment       0x0000000000000059       0x5a /f29bms/src/common/counters/STM32_counters.o
 .comment       0x0000000000000059       0x5a /f29bms/libs/stm32libs/STM32F0xx_StdPeriph_Driver/src/stm32f0xx_adc.o
 .comment       0x0000000000000059       0x5a /f29bms/libs/stm32libs/STM32F0xx_StdPeriph_Driver/src/stm32f0xx_can.o
 .comment       0x0000000000000059       0x5a /f29bms/libs/stm32libs/STM32F0xx_StdPeriph_Driver/src/stm32f0xx_cec.o
 .comment       0x0000000000000059       0x5a /f29bms/libs/stm32libs/STM32F0xx_StdPeriph_Driver/src/stm32f0xx_comp.o
 .comment       0x0000000000000059       0x5a /f29bms/libs/stm32libs/STM32F0xx_StdPeriph_Driver/src/stm32f0xx_crc.o
 .comment       0x0000000000000059       0x5a /f29bms/libs/stm32libs/STM32F0xx_StdPeriph_Driver/src/stm32f0xx_crs.o
 .comment       0x0000000000000059       0x5a /f29bms/libs/stm32libs/STM32F0xx_StdPeriph_Driver/src/stm32f0xx_dac.o
 .comment       0x0000000000000059       0x5a /f29bms/libs/stm32libs/STM32F0xx_StdPeriph_Driver/src/stm32f0xx_dbgmcu.o
 .comment       0x0000000000000059       0x5a /f29bms/libs/stm32libs/STM32F0xx_StdPeriph_Driver/src/stm32f0xx_dma.o
 .comment       0x0000000000000059       0x5a /f29bms/libs/stm32libs/STM32F0xx_StdPeriph_Driver/src/stm32f0xx_exti.o
 .comment       0x0000000000000059       0x5a /f29bms/libs/stm32libs/STM32F0xx_StdPeriph_Driver/src/stm32f0xx_flash.o
 .comment       0x0000000000000059       0x5a /f29bms/libs/stm32libs/STM32F0xx_StdPeriph_Driver/src/stm32f0xx_gpio.o
 .comment       0x0000000000000059       0x5a /f29bms/libs/stm32libs/STM32F0xx_StdPeriph_Driver/src/stm32f0xx_i2c.o
 .comment       0x0000000000000059       0x5a /f29bms/libs/stm32libs/STM32F0xx_StdPeriph_Driver/src/stm32f0xx_iwdg.o
 .comment       0x0000000000000059       0x5a /f29bms/libs/stm32libs/STM32F0xx_StdPeriph_Driver/src/stm32f0xx_misc.o
 .comment       0x0000000000000059       0x5a /f29bms/libs/stm32libs/STM32F0xx_StdPeriph_Driver/src/stm32f0xx_pwr.o
 .comment       0x0000000000000059       0x5a /f29bms/libs/stm32libs/STM32F0xx_StdPeriph_Driver/src/stm32f0xx_rcc.o
 .comment       0x0000000000000059       0x5a /f29bms/libs/stm32libs/STM32F0xx_StdPeriph_Driver/src/stm32f0xx_rtc.o
 .comment       0x0000000000000059       0x5a /f29bms/libs/stm32libs/STM32F0xx_StdPeriph_Driver/src/stm32f0xx_spi.o
 .comment       0x0000000000000059       0x5a /f29bms/libs/stm32libs/STM32F0xx_StdPeriph_Driver/src/stm32f0xx_syscfg.o
 .comment       0x0000000000000059       0x5a /f29bms/libs/stm32libs/STM32F0xx_StdPeriph_Driver/src/stm32f0xx_tim.o
 .comment       0x0000000000000059       0x5a /f29bms/libs/stm32libs/STM32F0xx_StdPeriph_Driver/src/stm32f0xx_usart.o
 .comment       0x0000000000000059       0x5a /f29bms/libs/stm32libs/STM32F0xx_StdPeriph_Driver/src/stm32f0xx_wwdg.o
 .comment       0x0000000000000059       0x5a /f29bms/libs/stm32libs/CMSIS/Device/ST/STM32F0xx/Source/Templates/system_stm32f0xx.o
 .comment       0x0000000000000059       0x5a /f29bms/src/app/CAN/STM32_f29bms_dbc.o
 .comment       0x0000000000000059       0x5a /usr/lib/gcc/arm-none-eabi/9.2.1/thumb/v6-m/nofp/libgcc.a(_muldi3.o)
 .comment       0x0000000000000059       0x5a /usr/lib/gcc/arm-none-eabi/9.2.1/thumb/v6-m/nofp/libgcc.a(_fixunsdfsi.o)
 .comment       0x0000000000000059       0x5a /usr/lib/gcc/arm-none-eabi/9.2.1/thumb/v6-m/nofp/libgcc.a(_fixunsdfdi.o)
 .comment       0x0000000000000059       0x5a /usr/lib/gcc/arm-none-eabi/9.2.1/thumb/v6-m/nofp/libgcc.a(_floatundidf.o)
 .comment       0x0000000000000059       0x5a /usr/lib/gcc/arm-none-eabi/9.2.1/thumb/v6-m/nofp/libgcc.a(divsf3.o)
 .comment       0x0000000000000059       0x5a /usr/lib/gcc/arm-none-eabi/9.2.1/thumb/v6-m/nofp/libgcc.a(mulsf3.o)
 .comment       0x0000000000000059       0x5a /usr/lib/gcc/arm-none-eabi/9.2.1/thumb/v6-m/nofp/libgcc.a(floatsisf.o)
 .comment       0x0000000000000059       0x5a /usr/lib/gcc/arm-none-eabi/9.2.1/thumb/v6-m/nofp/libgcc.a(floatunsisf.o)
 .comment       0x0000000000000059       0x5a /usr/lib/gcc/arm-none-eabi/9.2.1/thumb/v6-m/nofp/libgcc.a(adddf3.o)
 .comment       0x0000000000000059       0x5a /usr/lib/gcc/arm-none-eabi/9.2.1/thumb/v6-m/nofp/libgcc.a(divdf3.o)
 .comment       0x0000000000000059       0x5a /usr/lib/gcc/arm-none-eabi/9.2.1/thumb/v6-m/nofp/libgcc.a(muldf3.o)
 .comment       0x0000000000000059       0x5a /usr/lib/gcc/arm-none-eabi/9.2.1/thumb/v6-m/nofp/libgcc.a(subdf3.o)
 .comment       0x0000000000000059       0x5a /usr/lib/gcc/arm-none-eabi/9.2.1/thumb/v6-m/nofp/libgcc.a(fixdfsi.o)
 .comment       0x0000000000000059       0x5a /usr/lib/gcc/arm-none-eabi/9.2.1/thumb/v6-m/nofp/libgcc.a(floatsidf.o)
 .comment       0x0000000000000059       0x5a /usr/lib/gcc/arm-none-eabi/9.2.1/thumb/v6-m/nofp/libgcc.a(floatunsidf.o)
 .comment       0x0000000000000059       0x5a /usr/lib/gcc/arm-none-eabi/9.2.1/thumb/v6-m/nofp/libgcc.a(extendsfdf2.o)
 .comment       0x0000000000000059       0x5a /usr/lib/gcc/arm-none-eabi/9.2.1/thumb/v6-m/nofp/libgcc.a(truncdfsf2.o)
 .comment       0x0000000000000059       0x5a /usr/lib/gcc/arm-none-eabi/9.2.1/thumb/v6-m/nofp/libgcc.a(eqdf2.o)
 .comment       0x0000000000000059       0x5a /usr/lib/gcc/arm-none-eabi/9.2.1/thumb/v6-m/nofp/libgcc.a(gedf2.o)
 .comment       0x0000000000000059       0x5a /usr/lib/gcc/arm-none-eabi/9.2.1/thumb/v6-m/nofp/libgcc.a(ledf2.o)
 .comment       0x0000000000000059       0x4e /usr/lib/gcc/arm-none-eabi/9.2.1/../../../arm-none-eabi/lib/thumb/v6-m/nofp/libc.a(lib_a-atexit.o)
                                         0x4f (size before relaxing)
 .comment       0x00000000000000a7       0x4f /usr/lib/gcc/arm-none-eabi/9.2.1/../../../arm-none-eabi/lib/thumb/v6-m/nofp/libc.a(lib_a-exit.o)
 .comment       0x00000000000000a7       0x4f /usr/lib/gcc/arm-none-eabi/9.2.1/../../../arm-none-eabi/lib/thumb/v6-m/nofp/libc.a(lib_a-fini.o)
 .comment       0x00000000000000a7       0x4f /usr/lib/gcc/arm-none-eabi/9.2.1/../../../arm-none-eabi/lib/thumb/v6-m/nofp/libc.a(lib_a-impure.o)
 .comment       0x00000000000000a7       0x4f /usr/lib/gcc/arm-none-eabi/9.2.1/../../../arm-none-eabi/lib/thumb/v6-m/nofp/libc.a(lib_a-init.o)
 .comment       0x00000000000000a7       0x4f /usr/lib/gcc/arm-none-eabi/9.2.1/../../../arm-none-eabi/lib/thumb/v6-m/nofp/libc.a(lib_a-malloc.o)
 .comment       0x00000000000000a7       0x4f /usr/lib/gcc/arm-none-eabi/9.2.1/../../../arm-none-eabi/lib/thumb/v6-m/nofp/libc.a(lib_a-mallocr.o)
 .comment       0x00000000000000a7       0x4f /usr/lib/gcc/arm-none-eabi/9.2.1/../../../arm-none-eabi/lib/thumb/v6-m/nofp/libc.a(lib_a-memcpy-stub.o)
 .comment       0x00000000000000a7       0x4f /usr/lib/gcc/arm-none-eabi/9.2.1/../../../arm-none-eabi/lib/thumb/v6-m/nofp/libc.a(lib_a-memset.o)
 .comment       0x00000000000000a7       0x4f /usr/lib/gcc/arm-none-eabi/9.2.1/../../../arm-none-eabi/lib/thumb/v6-m/nofp/libc.a(lib_a-mlock.o)
 .comment       0x00000000000000a7       0x4f /usr/lib/gcc/arm-none-eabi/9.2.1/../../../arm-none-eabi/lib/thumb/v6-m/nofp/libc.a(lib_a-sbrkr.o)
 .comment       0x00000000000000a7       0x4f /usr/lib/gcc/arm-none-eabi/9.2.1/../../../arm-none-eabi/lib/thumb/v6-m/nofp/libc.a(lib_a-__atexit.o)
 .comment       0x00000000000000a7       0x4f /usr/lib/gcc/arm-none-eabi/9.2.1/../../../arm-none-eabi/lib/thumb/v6-m/nofp/libc.a(lib_a-__call_atexit.o)
 .comment       0x00000000000000a7       0x4f /usr/lib/gcc/arm-none-eabi/9.2.1/../../../arm-none-eabi/lib/thumb/v6-m/nofp/libc.a(lib_a-freer.o)
 .comment       0x00000000000000a7       0x4f /usr/lib/gcc/arm-none-eabi/9.2.1/../../../arm-none-eabi/lib/thumb/v6-m/nofp/libc.a(lib_a-reent.o)
 .comment       0x00000000000000a7       0x4f /usr/lib/gcc/arm-none-eabi/9.2.1/../../../arm-none-eabi/lib/thumb/v6-m/nofp/libnosys.a(sbrk.o)
 .comment       0x00000000000000a7       0x4f /usr/lib/gcc/arm-none-eabi/9.2.1/../../../arm-none-eabi/lib/thumb/v6-m/nofp/libnosys.a(_exit.o)
 .comment       0x00000000000000a7       0x5a /usr/lib/gcc/arm-none-eabi/9.2.1/thumb/v6-m/nofp/crtend.o

.debug_line     0x0000000000000000    0x11834
 .debug_line    0x0000000000000000       0x8c /usr/lib/gcc/arm-none-eabi/9.2.1/../../../arm-none-eabi/lib/thumb/v6-m/nofp/crt0.o
 .debug_line    0x000000000000008c       0x5d /f29bms/src/driver/HAL_Spi/test_STM32_HAL_Spi.o
 .debug_line    0x00000000000000e9      0x2a9 /f29bms/src/driver/HAL_Can/STM32_HAL_Can.o
 .debug_line    0x0000000000000392      0x1bf /f29bms/src/driver/HAL_CurrentSensor/STM32_HAL_CurrentSensor.o
 .debug_line    0x0000000000000551        0x0 /f29bms/src/driver/HAL_EEPROM/STM32_HAL_EEPROM.o
 .debug_line    0x0000000000000551      0x1f9 /f29bms/src/driver/HAL_Gpio/STM32_HAL_Gpio.o
 .debug_line    0x000000000000074a      0xb8b /f29bms/src/driver/HAL_SlaveChips/STM32_HAL_SlaveChips.o
 .debug_line    0x00000000000012d5       0xfb /f29bms/src/driver/HAL_Watchdog/STM32_HAL_Watchdog.o
 .debug_line    0x00000000000013d0      0x1e2 /f29bms/src/driver/HAL_Spi/STM32_HAL_Spi.o
 .debug_line    0x00000000000015b2       0x7f /f29bms/src/common/counters/STM32_counters.o
 .debug_line    0x0000000000001631      0x3a8 /f29bms/libs/stm32libs/STM32F0xx_StdPeriph_Driver/src/stm32f0xx_adc.o
 .debug_line    0x00000000000019d9      0x81d /f29bms/libs/stm32libs/STM32F0xx_StdPeriph_Driver/src/stm32f0xx_can.o
 .debug_line    0x00000000000021f6      0x276 /f29bms/libs/stm32libs/STM32F0xx_StdPeriph_Driver/src/stm32f0xx_cec.o
 .debug_line    0x000000000000246c      0x20e /f29bms/libs/stm32libs/STM32F0xx_StdPeriph_Driver/src/stm32f0xx_comp.o
 .debug_line    0x000000000000267a      0x1fe /f29bms/libs/stm32libs/STM32F0xx_StdPeriph_Driver/src/stm32f0xx_crc.o
 .debug_line    0x0000000000002878      0x1fc /f29bms/libs/stm32libs/STM32F0xx_StdPeriph_Driver/src/stm32f0xx_crs.o
 .debug_line    0x0000000000002a74      0x329 /f29bms/libs/stm32libs/STM32F0xx_StdPeriph_Driver/src/stm32f0xx_dac.o
 .debug_line    0x0000000000002d9d      0x159 /f29bms/libs/stm32libs/STM32F0xx_StdPeriph_Driver/src/stm32f0xx_dbgmcu.o
 .debug_line    0x0000000000002ef6      0x34b /f29bms/libs/stm32libs/STM32F0xx_StdPeriph_Driver/src/stm32f0xx_dma.o
 .debug_line    0x0000000000003241      0x251 /f29bms/libs/stm32libs/STM32F0xx_StdPeriph_Driver/src/stm32f0xx_exti.o
 .debug_line    0x0000000000003492      0x54e /f29bms/libs/stm32libs/STM32F0xx_StdPeriph_Driver/src/stm32f0xx_flash.o
 .debug_line    0x00000000000039e0      0x326 /f29bms/libs/stm32libs/STM32F0xx_StdPeriph_Driver/src/stm32f0xx_gpio.o
 .debug_line    0x0000000000003d06      0x4da /f29bms/libs/stm32libs/STM32F0xx_StdPeriph_Driver/src/stm32f0xx_i2c.o
 .debug_line    0x00000000000041e0      0x15a /f29bms/libs/stm32libs/STM32F0xx_StdPeriph_Driver/src/stm32f0xx_iwdg.o
 .debug_line    0x000000000000433a      0x207 /f29bms/libs/stm32libs/STM32F0xx_StdPeriph_Driver/src/stm32f0xx_misc.o
 .debug_line    0x0000000000004541      0x256 /f29bms/libs/stm32libs/STM32F0xx_StdPeriph_Driver/src/stm32f0xx_pwr.o
 .debug_line    0x0000000000004797      0x642 /f29bms/libs/stm32libs/STM32F0xx_StdPeriph_Driver/src/stm32f0xx_rcc.o
 .debug_line    0x0000000000004dd9      0xbcd /f29bms/libs/stm32libs/STM32F0xx_StdPeriph_Driver/src/stm32f0xx_rtc.o
 .debug_line    0x00000000000059a6      0x47d /f29bms/libs/stm32libs/STM32F0xx_StdPeriph_Driver/src/stm32f0xx_spi.o
 .debug_line    0x0000000000005e23      0x1d7 /f29bms/libs/stm32libs/STM32F0xx_StdPeriph_Driver/src/stm32f0xx_syscfg.o
 .debug_line    0x0000000000005ffa      0xac7 /f29bms/libs/stm32libs/STM32F0xx_StdPeriph_Driver/src/stm32f0xx_tim.o
 .debug_line    0x0000000000006ac1      0x5ec /f29bms/libs/stm32libs/STM32F0xx_StdPeriph_Driver/src/stm32f0xx_usart.o
 .debug_line    0x00000000000070ad      0x181 /f29bms/libs/stm32libs/STM32F0xx_StdPeriph_Driver/src/stm32f0xx_wwdg.o
 .debug_line    0x000000000000722e      0x236 /f29bms/libs/stm32libs/CMSIS/Device/ST/STM32F0xx/Source/Templates/system_stm32f0xx.o
 .debug_line    0x0000000000007464     0x278d /f29bms/src/app/CAN/STM32_f29bms_dbc.o
 .debug_line    0x0000000000009bf1       0x6c /usr/lib/gcc/arm-none-eabi/9.2.1/thumb/v6-m/nofp/libgcc.a(_udivsi3.o)
 .debug_line    0x0000000000009c5d       0x60 /usr/lib/gcc/arm-none-eabi/9.2.1/thumb/v6-m/nofp/libgcc.a(_dvmd_tls.o)
 .debug_line    0x0000000000009cbd      0x1b6 /usr/lib/gcc/arm-none-eabi/9.2.1/thumb/v6-m/nofp/libgcc.a(_muldi3.o)
 .debug_line    0x0000000000009e73      0x134 /usr/lib/gcc/arm-none-eabi/9.2.1/thumb/v6-m/nofp/libgcc.a(_fixunsdfsi.o)
 .debug_line    0x0000000000009fa7      0x133 /usr/lib/gcc/arm-none-eabi/9.2.1/thumb/v6-m/nofp/libgcc.a(_fixunsdfdi.o)
 .debug_line    0x000000000000a0da      0x12e /usr/lib/gcc/arm-none-eabi/9.2.1/thumb/v6-m/nofp/libgcc.a(_floatundidf.o)
 .debug_line    0x000000000000a208      0x54e /usr/lib/gcc/arm-none-eabi/9.2.1/thumb/v6-m/nofp/libgcc.a(divsf3.o)
 .debug_line    0x000000000000a756      0x57a /usr/lib/gcc/arm-none-eabi/9.2.1/thumb/v6-m/nofp/libgcc.a(mulsf3.o)
 .debug_line    0x000000000000acd0      0x230 /usr/lib/gcc/arm-none-eabi/9.2.1/thumb/v6-m/nofp/libgcc.a(floatsisf.o)
 .debug_line    0x000000000000af00      0x235 /usr/lib/gcc/arm-none-eabi/9.2.1/thumb/v6-m/nofp/libgcc.a(floatunsisf.o)
 .debug_line    0x000000000000b135      0xe8a /usr/lib/gcc/arm-none-eabi/9.2.1/thumb/v6-m/nofp/libgcc.a(adddf3.o)
 .debug_line    0x000000000000bfbf      0xb66 /usr/lib/gcc/arm-none-eabi/9.2.1/thumb/v6-m/nofp/libgcc.a(divdf3.o)
 .debug_line    0x000000000000cb25      0x9e3 /usr/lib/gcc/arm-none-eabi/9.2.1/thumb/v6-m/nofp/libgcc.a(muldf3.o)
 .debug_line    0x000000000000d508      0xf92 /usr/lib/gcc/arm-none-eabi/9.2.1/thumb/v6-m/nofp/libgcc.a(subdf3.o)
 .debug_line    0x000000000000e49a      0x170 /usr/lib/gcc/arm-none-eabi/9.2.1/thumb/v6-m/nofp/libgcc.a(fixdfsi.o)
 .debug_line    0x000000000000e60a      0x1bb /usr/lib/gcc/arm-none-eabi/9.2.1/thumb/v6-m/nofp/libgcc.a(floatsidf.o)
 .debug_line    0x000000000000e7c5      0x1c1 /usr/lib/gcc/arm-none-eabi/9.2.1/thumb/v6-m/nofp/libgcc.a(floatunsidf.o)
 .debug_line    0x000000000000e986      0x266 /usr/lib/gcc/arm-none-eabi/9.2.1/thumb/v6-m/nofp/libgcc.a(extendsfdf2.o)
 .debug_line    0x000000000000ebec      0x352 /usr/lib/gcc/arm-none-eabi/9.2.1/thumb/v6-m/nofp/libgcc.a(truncdfsf2.o)
 .debug_line    0x000000000000ef3e       0x78 /usr/lib/gcc/arm-none-eabi/9.2.1/thumb/v6-m/nofp/libgcc.a(_arm_cmpdf2.o)
 .debug_line    0x000000000000efb6       0x74 /usr/lib/gcc/arm-none-eabi/9.2.1/thumb/v6-m/nofp/libgcc.a(_clzsi2.o)
 .debug_line    0x000000000000f02a      0x168 /usr/lib/gcc/arm-none-eabi/9.2.1/thumb/v6-m/nofp/libgcc.a(eqdf2.o)
 .debug_line    0x000000000000f192      0x1df /usr/lib/gcc/arm-none-eabi/9.2.1/thumb/v6-m/nofp/libgcc.a(gedf2.o)
 .debug_line    0x000000000000f371      0x1d7 /usr/lib/gcc/arm-none-eabi/9.2.1/thumb/v6-m/nofp/libgcc.a(ledf2.o)
 .debug_line    0x000000000000f548      0x152 /usr/lib/gcc/arm-none-eabi/9.2.1/../../../arm-none-eabi/lib/thumb/v6-m/nofp/libc.a(lib_a-atexit.o)
 .debug_line    0x000000000000f69a      0x178 /usr/lib/gcc/arm-none-eabi/9.2.1/../../../arm-none-eabi/lib/thumb/v6-m/nofp/libc.a(lib_a-exit.o)
 .debug_line    0x000000000000f812       0xd4 /usr/lib/gcc/arm-none-eabi/9.2.1/../../../arm-none-eabi/lib/thumb/v6-m/nofp/libc.a(lib_a-fini.o)
 .debug_line    0x000000000000f8e6       0xe3 /usr/lib/gcc/arm-none-eabi/9.2.1/../../../arm-none-eabi/lib/thumb/v6-m/nofp/libc.a(lib_a-impure.o)
 .debug_line    0x000000000000f9c9       0xfc /usr/lib/gcc/arm-none-eabi/9.2.1/../../../arm-none-eabi/lib/thumb/v6-m/nofp/libc.a(lib_a-init.o)
 .debug_line    0x000000000000fac5      0x16e /usr/lib/gcc/arm-none-eabi/9.2.1/../../../arm-none-eabi/lib/thumb/v6-m/nofp/libc.a(lib_a-malloc.o)
 .debug_line    0x000000000000fc33      0x89d /usr/lib/gcc/arm-none-eabi/9.2.1/../../../arm-none-eabi/lib/thumb/v6-m/nofp/libc.a(lib_a-mallocr.o)
 .debug_line    0x00000000000104d0      0x24d /usr/lib/gcc/arm-none-eabi/9.2.1/../../../arm-none-eabi/lib/thumb/v6-m/nofp/libc.a(lib_a-memcpy-stub.o)
 .debug_line    0x000000000001071d      0x281 /usr/lib/gcc/arm-none-eabi/9.2.1/../../../arm-none-eabi/lib/thumb/v6-m/nofp/libc.a(lib_a-memset.o)
 .debug_line    0x000000000001099e      0x13d /usr/lib/gcc/arm-none-eabi/9.2.1/../../../arm-none-eabi/lib/thumb/v6-m/nofp/libc.a(lib_a-mlock.o)
 .debug_line    0x0000000000010adb      0x185 /usr/lib/gcc/arm-none-eabi/9.2.1/../../../arm-none-eabi/lib/thumb/v6-m/nofp/libc.a(lib_a-sbrkr.o)
 .debug_line    0x0000000000010c60      0x1f9 /usr/lib/gcc/arm-none-eabi/9.2.1/../../../arm-none-eabi/lib/thumb/v6-m/nofp/libc.a(lib_a-__atexit.o)
 .debug_line    0x0000000000010e59      0x261 /usr/lib/gcc/arm-none-eabi/9.2.1/../../../arm-none-eabi/lib/thumb/v6-m/nofp/libc.a(lib_a-__call_atexit.o)
 .debug_line    0x00000000000110ba      0x482 /usr/lib/gcc/arm-none-eabi/9.2.1/../../../arm-none-eabi/lib/thumb/v6-m/nofp/libc.a(lib_a-freer.o)
 .debug_line    0x000000000001153c      0x20d /usr/lib/gcc/arm-none-eabi/9.2.1/../../../arm-none-eabi/lib/thumb/v6-m/nofp/libc.a(lib_a-reent.o)
 .debug_line    0x0000000000011749       0x7d /usr/lib/gcc/arm-none-eabi/9.2.1/../../../arm-none-eabi/lib/thumb/v6-m/nofp/libnosys.a(sbrk.o)
 .debug_line    0x00000000000117c6       0x6e /usr/lib/gcc/arm-none-eabi/9.2.1/../../../arm-none-eabi/lib/thumb/v6-m/nofp/libnosys.a(_exit.o)

.debug_info     0x0000000000000000    0x27250
 .debug_info    0x0000000000000000       0x26 /usr/lib/gcc/arm-none-eabi/9.2.1/../../../arm-none-eabi/lib/thumb/v6-m/nofp/crt0.o
 .debug_info    0x0000000000000026       0x43 /f29bms/src/driver/HAL_Spi/test_STM32_HAL_Spi.o
 .debug_info    0x0000000000000069     0x1a7d /f29bms/src/driver/HAL_Can/STM32_HAL_Can.o
 .debug_info    0x0000000000001ae6      0x4e1 /f29bms/src/driver/HAL_CurrentSensor/STM32_HAL_CurrentSensor.o
 .debug_info    0x0000000000001fc7      0xd19 /f29bms/src/driver/HAL_Gpio/STM32_HAL_Gpio.o
 .debug_info    0x0000000000002ce0     0x16fd /f29bms/src/driver/HAL_SlaveChips/STM32_HAL_SlaveChips.o
 .debug_info    0x00000000000043dd       0xc4 /f29bms/src/driver/HAL_Watchdog/STM32_HAL_Watchdog.o
 .debug_info    0x00000000000044a1      0x56a /f29bms/src/driver/HAL_Spi/STM32_HAL_Spi.o
 .debug_info    0x0000000000004a0b       0xe4 /f29bms/src/common/counters/STM32_counters.o
 .debug_info    0x0000000000004aef      0x946 /f29bms/libs/stm32libs/STM32F0xx_StdPeriph_Driver/src/stm32f0xx_adc.o
 .debug_info    0x0000000000005435      0xc12 /f29bms/libs/stm32libs/STM32F0xx_StdPeriph_Driver/src/stm32f0xx_can.o
 .debug_info    0x0000000000006047      0x459 /f29bms/libs/stm32libs/STM32F0xx_StdPeriph_Driver/src/stm32f0xx_cec.o
 .debug_info    0x00000000000064a0      0x298 /f29bms/libs/stm32libs/STM32F0xx_StdPeriph_Driver/src/stm32f0xx_comp.o
 .debug_info    0x0000000000006738      0x37f /f29bms/libs/stm32libs/STM32F0xx_StdPeriph_Driver/src/stm32f0xx_crc.o
 .debug_info    0x0000000000006ab7      0x3d5 /f29bms/libs/stm32libs/STM32F0xx_StdPeriph_Driver/src/stm32f0xx_crs.o
 .debug_info    0x0000000000006e8c      0x65e /f29bms/libs/stm32libs/STM32F0xx_StdPeriph_Driver/src/stm32f0xx_dac.o
 .debug_info    0x00000000000074ea      0x1cc /f29bms/libs/stm32libs/STM32F0xx_StdPeriph_Driver/src/stm32f0xx_dbgmcu.o
 .debug_info    0x00000000000076b6      0x4ed /f29bms/libs/stm32libs/STM32F0xx_StdPeriph_Driver/src/stm32f0xx_dma.o
 .debug_info    0x0000000000007ba3      0x34d /f29bms/libs/stm32libs/STM32F0xx_StdPeriph_Driver/src/stm32f0xx_exti.o
 .debug_info    0x0000000000007ef0      0x89c /f29bms/libs/stm32libs/STM32F0xx_StdPeriph_Driver/src/stm32f0xx_flash.o
 .debug_info    0x000000000000878c      0x627 /f29bms/libs/stm32libs/STM32F0xx_StdPeriph_Driver/src/stm32f0xx_gpio.o
 .debug_info    0x0000000000008db3      0xc4f /f29bms/libs/stm32libs/STM32F0xx_StdPeriph_Driver/src/stm32f0xx_i2c.o
 .debug_info    0x0000000000009a02      0x219 /f29bms/libs/stm32libs/STM32F0xx_StdPeriph_Driver/src/stm32f0xx_iwdg.o
 .debug_info    0x0000000000009c1b      0x385 /f29bms/libs/stm32libs/STM32F0xx_StdPeriph_Driver/src/stm32f0xx_misc.o
 .debug_info    0x0000000000009fa0      0x41f /f29bms/libs/stm32libs/STM32F0xx_StdPeriph_Driver/src/stm32f0xx_pwr.o
 .debug_info    0x000000000000a3bf      0xada /f29bms/libs/stm32libs/STM32F0xx_StdPeriph_Driver/src/stm32f0xx_rcc.o
 .debug_info    0x000000000000ae99      0xfe7 /f29bms/libs/stm32libs/STM32F0xx_StdPeriph_Driver/src/stm32f0xx_rtc.o
 .debug_info    0x000000000000be80      0xb4a /f29bms/libs/stm32libs/STM32F0xx_StdPeriph_Driver/src/stm32f0xx_spi.o
 .debug_info    0x000000000000c9ca      0x361 /f29bms/libs/stm32libs/STM32F0xx_StdPeriph_Driver/src/stm32f0xx_syscfg.o
 .debug_info    0x000000000000cd2b     0x1e10 /f29bms/libs/stm32libs/STM32F0xx_StdPeriph_Driver/src/stm32f0xx_tim.o
 .debug_info    0x000000000000eb3b      0xf1f /f29bms/libs/stm32libs/STM32F0xx_StdPeriph_Driver/src/stm32f0xx_usart.o
 .debug_info    0x000000000000fa5a      0x23f /f29bms/libs/stm32libs/STM32F0xx_StdPeriph_Driver/src/stm32f0xx_wwdg.o
 .debug_info    0x000000000000fc99      0x30c /f29bms/libs/stm32libs/CMSIS/Device/ST/STM32F0xx/Source/Templates/system_stm32f0xx.o
 .debug_info    0x000000000000ffa5     0x7583 /f29bms/src/app/CAN/STM32_f29bms_dbc.o
 .debug_info    0x0000000000017528       0x26 /usr/lib/gcc/arm-none-eabi/9.2.1/thumb/v6-m/nofp/libgcc.a(_udivsi3.o)
 .debug_info    0x000000000001754e       0x26 /usr/lib/gcc/arm-none-eabi/9.2.1/thumb/v6-m/nofp/libgcc.a(_dvmd_tls.o)
 .debug_info    0x0000000000017574      0xa96 /usr/lib/gcc/arm-none-eabi/9.2.1/thumb/v6-m/nofp/libgcc.a(_muldi3.o)
 .debug_info    0x000000000001800a      0x940 /usr/lib/gcc/arm-none-eabi/9.2.1/thumb/v6-m/nofp/libgcc.a(_fixunsdfsi.o)
 .debug_info    0x000000000001894a      0x96d /usr/lib/gcc/arm-none-eabi/9.2.1/thumb/v6-m/nofp/libgcc.a(_fixunsdfdi.o)
 .debug_info    0x00000000000192b7      0x953 /usr/lib/gcc/arm-none-eabi/9.2.1/thumb/v6-m/nofp/libgcc.a(_floatundidf.o)
 .debug_info    0x0000000000019c0a      0x392 /usr/lib/gcc/arm-none-eabi/9.2.1/thumb/v6-m/nofp/libgcc.a(divsf3.o)
 .debug_info    0x0000000000019f9c      0x423 /usr/lib/gcc/arm-none-eabi/9.2.1/thumb/v6-m/nofp/libgcc.a(mulsf3.o)
 .debug_info    0x000000000001a3bf      0x271 /usr/lib/gcc/arm-none-eabi/9.2.1/thumb/v6-m/nofp/libgcc.a(floatsisf.o)
 .debug_info    0x000000000001a630      0x264 /usr/lib/gcc/arm-none-eabi/9.2.1/thumb/v6-m/nofp/libgcc.a(floatunsisf.o)
 .debug_info    0x000000000001a894      0x624 /usr/lib/gcc/arm-none-eabi/9.2.1/thumb/v6-m/nofp/libgcc.a(adddf3.o)
 .debug_info    0x000000000001aeb8      0x82b /usr/lib/gcc/arm-none-eabi/9.2.1/thumb/v6-m/nofp/libgcc.a(divdf3.o)
 .debug_info    0x000000000001b6e3      0x857 /usr/lib/gcc/arm-none-eabi/9.2.1/thumb/v6-m/nofp/libgcc.a(muldf3.o)
 .debug_info    0x000000000001bf3a      0x630 /usr/lib/gcc/arm-none-eabi/9.2.1/thumb/v6-m/nofp/libgcc.a(subdf3.o)
 .debug_info    0x000000000001c56a      0x21b /usr/lib/gcc/arm-none-eabi/9.2.1/thumb/v6-m/nofp/libgcc.a(fixdfsi.o)
 .debug_info    0x000000000001c785      0x2f0 /usr/lib/gcc/arm-none-eabi/9.2.1/thumb/v6-m/nofp/libgcc.a(floatsidf.o)
 .debug_info    0x000000000001ca75      0x2e3 /usr/lib/gcc/arm-none-eabi/9.2.1/thumb/v6-m/nofp/libgcc.a(floatunsidf.o)
 .debug_info    0x000000000001cd58      0x2c7 /usr/lib/gcc/arm-none-eabi/9.2.1/thumb/v6-m/nofp/libgcc.a(extendsfdf2.o)
 .debug_info    0x000000000001d01f      0x2f1 /usr/lib/gcc/arm-none-eabi/9.2.1/thumb/v6-m/nofp/libgcc.a(truncdfsf2.o)
 .debug_info    0x000000000001d310       0x26 /usr/lib/gcc/arm-none-eabi/9.2.1/thumb/v6-m/nofp/libgcc.a(_arm_cmpdf2.o)
 .debug_info    0x000000000001d336       0x26 /usr/lib/gcc/arm-none-eabi/9.2.1/thumb/v6-m/nofp/libgcc.a(_clzsi2.o)
 .debug_info    0x000000000001d35c      0x297 /usr/lib/gcc/arm-none-eabi/9.2.1/thumb/v6-m/nofp/libgcc.a(eqdf2.o)
 .debug_info    0x000000000001d5f3      0x2b5 /usr/lib/gcc/arm-none-eabi/9.2.1/thumb/v6-m/nofp/libgcc.a(gedf2.o)
 .debug_info    0x000000000001d8a8      0x2b5 /usr/lib/gcc/arm-none-eabi/9.2.1/thumb/v6-m/nofp/libgcc.a(ledf2.o)
 .debug_info    0x000000000001db5d      0x995 /usr/lib/gcc/arm-none-eabi/9.2.1/../../../arm-none-eabi/lib/thumb/v6-m/nofp/libc.a(lib_a-atexit.o)
 .debug_info    0x000000000001e4f2      0x9d0 /usr/lib/gcc/arm-none-eabi/9.2.1/../../../arm-none-eabi/lib/thumb/v6-m/nofp/libc.a(lib_a-exit.o)
 .debug_info    0x000000000001eec2      0x102 /usr/lib/gcc/arm-none-eabi/9.2.1/../../../arm-none-eabi/lib/thumb/v6-m/nofp/libc.a(lib_a-fini.o)
 .debug_info    0x000000000001efc4      0x92a /usr/lib/gcc/arm-none-eabi/9.2.1/../../../arm-none-eabi/lib/thumb/v6-m/nofp/libc.a(lib_a-impure.o)
 .debug_info    0x000000000001f8ee      0x11a /usr/lib/gcc/arm-none-eabi/9.2.1/../../../arm-none-eabi/lib/thumb/v6-m/nofp/libc.a(lib_a-init.o)
 .debug_info    0x000000000001fa08      0x9b6 /usr/lib/gcc/arm-none-eabi/9.2.1/../../../arm-none-eabi/lib/thumb/v6-m/nofp/libc.a(lib_a-malloc.o)
 .debug_info    0x00000000000203be      0xf1a /usr/lib/gcc/arm-none-eabi/9.2.1/../../../arm-none-eabi/lib/thumb/v6-m/nofp/libc.a(lib_a-mallocr.o)
 .debug_info    0x00000000000212d8      0xf35 /usr/lib/gcc/arm-none-eabi/9.2.1/../../../arm-none-eabi/lib/thumb/v6-m/nofp/libc.a(lib_a-memcpy-stub.o)
 .debug_info    0x000000000002220d      0xf21 /usr/lib/gcc/arm-none-eabi/9.2.1/../../../arm-none-eabi/lib/thumb/v6-m/nofp/libc.a(lib_a-memset.o)
 .debug_info    0x000000000002312e      0x961 /usr/lib/gcc/arm-none-eabi/9.2.1/../../../arm-none-eabi/lib/thumb/v6-m/nofp/libc.a(lib_a-mlock.o)
 .debug_info    0x0000000000023a8f      0x9fb /usr/lib/gcc/arm-none-eabi/9.2.1/../../../arm-none-eabi/lib/thumb/v6-m/nofp/libc.a(lib_a-sbrkr.o)
 .debug_info    0x000000000002448a      0x9d5 /usr/lib/gcc/arm-none-eabi/9.2.1/../../../arm-none-eabi/lib/thumb/v6-m/nofp/libc.a(lib_a-__atexit.o)
 .debug_info    0x0000000000024e5f      0xa56 /usr/lib/gcc/arm-none-eabi/9.2.1/../../../arm-none-eabi/lib/thumb/v6-m/nofp/libc.a(lib_a-__call_atexit.o)
 .debug_info    0x00000000000258b5      0xd99 /usr/lib/gcc/arm-none-eabi/9.2.1/../../../arm-none-eabi/lib/thumb/v6-m/nofp/libc.a(lib_a-freer.o)
 .debug_info    0x000000000002664e      0xac2 /usr/lib/gcc/arm-none-eabi/9.2.1/../../../arm-none-eabi/lib/thumb/v6-m/nofp/libc.a(lib_a-reent.o)
 .debug_info    0x0000000000027110       0x9d /usr/lib/gcc/arm-none-eabi/9.2.1/../../../arm-none-eabi/lib/thumb/v6-m/nofp/libnosys.a(sbrk.o)
 .debug_info    0x00000000000271ad       0xa3 /usr/lib/gcc/arm-none-eabi/9.2.1/../../../arm-none-eabi/lib/thumb/v6-m/nofp/libnosys.a(_exit.o)

.debug_abbrev   0x0000000000000000     0x76c9
 .debug_abbrev  0x0000000000000000       0x14 /usr/lib/gcc/arm-none-eabi/9.2.1/../../../arm-none-eabi/lib/thumb/v6-m/nofp/crt0.o
 .debug_abbrev  0x0000000000000014       0x39 /f29bms/src/driver/HAL_Spi/test_STM32_HAL_Spi.o
 .debug_abbrev  0x000000000000004d      0x2ce /f29bms/src/driver/HAL_Can/STM32_HAL_Can.o
 .debug_abbrev  0x000000000000031b      0x157 /f29bms/src/driver/HAL_CurrentSensor/STM32_HAL_CurrentSensor.o
 .debug_abbrev  0x0000000000000472      0x283 /f29bms/src/driver/HAL_Gpio/STM32_HAL_Gpio.o
 .debug_abbrev  0x00000000000006f5      0x373 /f29bms/src/driver/HAL_SlaveChips/STM32_HAL_SlaveChips.o
 .debug_abbrev  0x0000000000000a68       0x9c /f29bms/src/driver/HAL_Watchdog/STM32_HAL_Watchdog.o
 .debug_abbrev  0x0000000000000b04      0x18b /f29bms/src/driver/HAL_Spi/STM32_HAL_Spi.o
 .debug_abbrev  0x0000000000000c8f       0x8f /f29bms/src/common/counters/STM32_counters.o
 .debug_abbrev  0x0000000000000d1e      0x1a7 /f29bms/libs/stm32libs/STM32F0xx_StdPeriph_Driver/src/stm32f0xx_adc.o
 .debug_abbrev  0x0000000000000ec5      0x225 /f29bms/libs/stm32libs/STM32F0xx_StdPeriph_Driver/src/stm32f0xx_can.o
 .debug_abbrev  0x00000000000010ea      0x1dc /f29bms/libs/stm32libs/STM32F0xx_StdPeriph_Driver/src/stm32f0xx_cec.o
 .debug_abbrev  0x00000000000012c6      0x17b /f29bms/libs/stm32libs/STM32F0xx_StdPeriph_Driver/src/stm32f0xx_comp.o
 .debug_abbrev  0x0000000000001441      0x1a6 /f29bms/libs/stm32libs/STM32F0xx_StdPeriph_Driver/src/stm32f0xx_crc.o
 .debug_abbrev  0x00000000000015e7      0x180 /f29bms/libs/stm32libs/STM32F0xx_StdPeriph_Driver/src/stm32f0xx_crs.o
 .debug_abbrev  0x0000000000001767      0x1a6 /f29bms/libs/stm32libs/STM32F0xx_StdPeriph_Driver/src/stm32f0xx_dac.o
 .debug_abbrev  0x000000000000190d       0xf8 /f29bms/libs/stm32libs/STM32F0xx_StdPeriph_Driver/src/stm32f0xx_dbgmcu.o
 .debug_abbrev  0x0000000000001a05      0x1a7 /f29bms/libs/stm32libs/STM32F0xx_StdPeriph_Driver/src/stm32f0xx_dma.o
 .debug_abbrev  0x0000000000001bac      0x1d7 /f29bms/libs/stm32libs/STM32F0xx_StdPeriph_Driver/src/stm32f0xx_exti.o
 .debug_abbrev  0x0000000000001d83      0x21c /f29bms/libs/stm32libs/STM32F0xx_StdPeriph_Driver/src/stm32f0xx_flash.o
 .debug_abbrev  0x0000000000001f9f      0x1c2 /f29bms/libs/stm32libs/STM32F0xx_StdPeriph_Driver/src/stm32f0xx_gpio.o
 .debug_abbrev  0x0000000000002161      0x1a6 /f29bms/libs/stm32libs/STM32F0xx_StdPeriph_Driver/src/stm32f0xx_i2c.o
 .debug_abbrev  0x0000000000002307      0x159 /f29bms/libs/stm32libs/STM32F0xx_StdPeriph_Driver/src/stm32f0xx_iwdg.o
 .debug_abbrev  0x0000000000002460      0x160 /f29bms/libs/stm32libs/STM32F0xx_StdPeriph_Driver/src/stm32f0xx_misc.o
 .debug_abbrev  0x00000000000025c0      0x1a7 /f29bms/libs/stm32libs/STM32F0xx_StdPeriph_Driver/src/stm32f0xx_pwr.o
 .debug_abbrev  0x0000000000002767      0x22f /f29bms/libs/stm32libs/STM32F0xx_StdPeriph_Driver/src/stm32f0xx_rcc.o
 .debug_abbrev  0x0000000000002996      0x1f6 /f29bms/libs/stm32libs/STM32F0xx_StdPeriph_Driver/src/stm32f0xx_rtc.o
 .debug_abbrev  0x0000000000002b8c      0x1c2 /f29bms/libs/stm32libs/STM32F0xx_StdPeriph_Driver/src/stm32f0xx_spi.o
 .debug_abbrev  0x0000000000002d4e      0x17e /f29bms/libs/stm32libs/STM32F0xx_StdPeriph_Driver/src/stm32f0xx_syscfg.o
 .debug_abbrev  0x0000000000002ecc      0x1af /f29bms/libs/stm32libs/STM32F0xx_StdPeriph_Driver/src/stm32f0xx_tim.o
 .debug_abbrev  0x000000000000307b      0x195 /f29bms/libs/stm32libs/STM32F0xx_StdPeriph_Driver/src/stm32f0xx_usart.o
 .debug_abbrev  0x0000000000003210      0x162 /f29bms/libs/stm32libs/STM32F0xx_StdPeriph_Driver/src/stm32f0xx_wwdg.o
 .debug_abbrev  0x0000000000003372      0x176 /f29bms/libs/stm32libs/CMSIS/Device/ST/STM32F0xx/Source/Templates/system_stm32f0xx.o
 .debug_abbrev  0x00000000000034e8      0x283 /f29bms/src/app/CAN/STM32_f29bms_dbc.o
 .debug_abbrev  0x000000000000376b       0x14 /usr/lib/gcc/arm-none-eabi/9.2.1/thumb/v6-m/nofp/libgcc.a(_udivsi3.o)
 .debug_abbrev  0x000000000000377f       0x14 /usr/lib/gcc/arm-none-eabi/9.2.1/thumb/v6-m/nofp/libgcc.a(_dvmd_tls.o)
 .debug_abbrev  0x0000000000003793      0x1a3 /usr/lib/gcc/arm-none-eabi/9.2.1/thumb/v6-m/nofp/libgcc.a(_muldi3.o)
 .debug_abbrev  0x0000000000003936      0x13b /usr/lib/gcc/arm-none-eabi/9.2.1/thumb/v6-m/nofp/libgcc.a(_fixunsdfsi.o)
 .debug_abbrev  0x0000000000003a71      0x14f /usr/lib/gcc/arm-none-eabi/9.2.1/thumb/v6-m/nofp/libgcc.a(_fixunsdfdi.o)
 .debug_abbrev  0x0000000000003bc0      0x14f /usr/lib/gcc/arm-none-eabi/9.2.1/thumb/v6-m/nofp/libgcc.a(_floatundidf.o)
 .debug_abbrev  0x0000000000003d0f      0x181 /usr/lib/gcc/arm-none-eabi/9.2.1/thumb/v6-m/nofp/libgcc.a(divsf3.o)
 .debug_abbrev  0x0000000000003e90      0x172 /usr/lib/gcc/arm-none-eabi/9.2.1/thumb/v6-m/nofp/libgcc.a(mulsf3.o)
 .debug_abbrev  0x0000000000004002      0x1a1 /usr/lib/gcc/arm-none-eabi/9.2.1/thumb/v6-m/nofp/libgcc.a(floatsisf.o)
 .debug_abbrev  0x00000000000041a3      0x1a1 /usr/lib/gcc/arm-none-eabi/9.2.1/thumb/v6-m/nofp/libgcc.a(floatunsisf.o)
 .debug_abbrev  0x0000000000004344      0x18e /usr/lib/gcc/arm-none-eabi/9.2.1/thumb/v6-m/nofp/libgcc.a(adddf3.o)
 .debug_abbrev  0x00000000000044d2      0x188 /usr/lib/gcc/arm-none-eabi/9.2.1/thumb/v6-m/nofp/libgcc.a(divdf3.o)
 .debug_abbrev  0x000000000000465a      0x18f /usr/lib/gcc/arm-none-eabi/9.2.1/thumb/v6-m/nofp/libgcc.a(muldf3.o)
 .debug_abbrev  0x00000000000047e9      0x197 /usr/lib/gcc/arm-none-eabi/9.2.1/thumb/v6-m/nofp/libgcc.a(subdf3.o)
 .debug_abbrev  0x0000000000004980      0x182 /usr/lib/gcc/arm-none-eabi/9.2.1/thumb/v6-m/nofp/libgcc.a(fixdfsi.o)
 .debug_abbrev  0x0000000000004b02      0x195 /usr/lib/gcc/arm-none-eabi/9.2.1/thumb/v6-m/nofp/libgcc.a(floatsidf.o)
 .debug_abbrev  0x0000000000004c97      0x195 /usr/lib/gcc/arm-none-eabi/9.2.1/thumb/v6-m/nofp/libgcc.a(floatunsidf.o)
 .debug_abbrev  0x0000000000004e2c      0x16a /usr/lib/gcc/arm-none-eabi/9.2.1/thumb/v6-m/nofp/libgcc.a(extendsfdf2.o)
 .debug_abbrev  0x0000000000004f96      0x16f /usr/lib/gcc/arm-none-eabi/9.2.1/thumb/v6-m/nofp/libgcc.a(truncdfsf2.o)
 .debug_abbrev  0x0000000000005105       0x14 /usr/lib/gcc/arm-none-eabi/9.2.1/thumb/v6-m/nofp/libgcc.a(_arm_cmpdf2.o)
 .debug_abbrev  0x0000000000005119       0x14 /usr/lib/gcc/arm-none-eabi/9.2.1/thumb/v6-m/nofp/libgcc.a(_clzsi2.o)
 .debug_abbrev  0x000000000000512d      0x18f /usr/lib/gcc/arm-none-eabi/9.2.1/thumb/v6-m/nofp/libgcc.a(eqdf2.o)
 .debug_abbrev  0x00000000000052bc      0x191 /usr/lib/gcc/arm-none-eabi/9.2.1/thumb/v6-m/nofp/libgcc.a(gedf2.o)
 .debug_abbrev  0x000000000000544d      0x191 /usr/lib/gcc/arm-none-eabi/9.2.1/thumb/v6-m/nofp/libgcc.a(ledf2.o)
 .debug_abbrev  0x00000000000055de      0x22f /usr/lib/gcc/arm-none-eabi/9.2.1/../../../arm-none-eabi/lib/thumb/v6-m/nofp/libc.a(lib_a-atexit.o)
 .debug_abbrev  0x000000000000580d      0x21f /usr/lib/gcc/arm-none-eabi/9.2.1/../../../arm-none-eabi/lib/thumb/v6-m/nofp/libc.a(lib_a-exit.o)
 .debug_abbrev  0x0000000000005a2c       0xcc /usr/lib/gcc/arm-none-eabi/9.2.1/../../../arm-none-eabi/lib/thumb/v6-m/nofp/libc.a(lib_a-fini.o)
 .debug_abbrev  0x0000000000005af8      0x1b8 /usr/lib/gcc/arm-none-eabi/9.2.1/../../../arm-none-eabi/lib/thumb/v6-m/nofp/libc.a(lib_a-impure.o)
 .debug_abbrev  0x0000000000005cb0       0xcc /usr/lib/gcc/arm-none-eabi/9.2.1/../../../arm-none-eabi/lib/thumb/v6-m/nofp/libc.a(lib_a-init.o)
 .debug_abbrev  0x0000000000005d7c      0x22d /usr/lib/gcc/arm-none-eabi/9.2.1/../../../arm-none-eabi/lib/thumb/v6-m/nofp/libc.a(lib_a-malloc.o)
 .debug_abbrev  0x0000000000005fa9      0x321 /usr/lib/gcc/arm-none-eabi/9.2.1/../../../arm-none-eabi/lib/thumb/v6-m/nofp/libc.a(lib_a-mallocr.o)
 .debug_abbrev  0x00000000000062ca      0x223 /usr/lib/gcc/arm-none-eabi/9.2.1/../../../arm-none-eabi/lib/thumb/v6-m/nofp/libc.a(lib_a-memcpy-stub.o)
 .debug_abbrev  0x00000000000064ed      0x217 /usr/lib/gcc/arm-none-eabi/9.2.1/../../../arm-none-eabi/lib/thumb/v6-m/nofp/libc.a(lib_a-memset.o)
 .debug_abbrev  0x0000000000006704      0x203 /usr/lib/gcc/arm-none-eabi/9.2.1/../../../arm-none-eabi/lib/thumb/v6-m/nofp/libc.a(lib_a-mlock.o)
 .debug_abbrev  0x0000000000006907      0x250 /usr/lib/gcc/arm-none-eabi/9.2.1/../../../arm-none-eabi/lib/thumb/v6-m/nofp/libc.a(lib_a-sbrkr.o)
 .debug_abbrev  0x0000000000006b57      0x252 /usr/lib/gcc/arm-none-eabi/9.2.1/../../../arm-none-eabi/lib/thumb/v6-m/nofp/libc.a(lib_a-__atexit.o)
 .debug_abbrev  0x0000000000006da9      0x2af /usr/lib/gcc/arm-none-eabi/9.2.1/../../../arm-none-eabi/lib/thumb/v6-m/nofp/libc.a(lib_a-__call_atexit.o)
 .debug_abbrev  0x0000000000007058      0x2b9 /usr/lib/gcc/arm-none-eabi/9.2.1/../../../arm-none-eabi/lib/thumb/v6-m/nofp/libc.a(lib_a-freer.o)
 .debug_abbrev  0x0000000000007311      0x2ac /usr/lib/gcc/arm-none-eabi/9.2.1/../../../arm-none-eabi/lib/thumb/v6-m/nofp/libc.a(lib_a-reent.o)
 .debug_abbrev  0x00000000000075bd       0xa2 /usr/lib/gcc/arm-none-eabi/9.2.1/../../../arm-none-eabi/lib/thumb/v6-m/nofp/libnosys.a(sbrk.o)
 .debug_abbrev  0x000000000000765f       0x6a /usr/lib/gcc/arm-none-eabi/9.2.1/../../../arm-none-eabi/lib/thumb/v6-m/nofp/libnosys.a(_exit.o)

.debug_aranges  0x0000000000000000      0x960
 .debug_aranges
                0x0000000000000000       0x20 /usr/lib/gcc/arm-none-eabi/9.2.1/../../../arm-none-eabi/lib/thumb/v6-m/nofp/crt0.o
 .debug_aranges
                0x0000000000000020       0x20 /f29bms/src/driver/HAL_Spi/test_STM32_HAL_Spi.o
 .debug_aranges
                0x0000000000000040       0x20 /f29bms/src/driver/HAL_Can/STM32_HAL_Can.o
 .debug_aranges
                0x0000000000000060       0x20 /f29bms/src/driver/HAL_CurrentSensor/STM32_HAL_CurrentSensor.o
 .debug_aranges
                0x0000000000000080       0x20 /f29bms/src/driver/HAL_Gpio/STM32_HAL_Gpio.o
 .debug_aranges
                0x00000000000000a0       0x20 /f29bms/src/driver/HAL_SlaveChips/STM32_HAL_SlaveChips.o
 .debug_aranges
                0x00000000000000c0       0x20 /f29bms/src/driver/HAL_Watchdog/STM32_HAL_Watchdog.o
 .debug_aranges
                0x00000000000000e0       0x20 /f29bms/src/driver/HAL_Spi/STM32_HAL_Spi.o
 .debug_aranges
                0x0000000000000100       0x20 /f29bms/src/common/counters/STM32_counters.o
 .debug_aranges
                0x0000000000000120       0x20 /f29bms/libs/stm32libs/STM32F0xx_StdPeriph_Driver/src/stm32f0xx_adc.o
 .debug_aranges
                0x0000000000000140       0x20 /f29bms/libs/stm32libs/STM32F0xx_StdPeriph_Driver/src/stm32f0xx_can.o
 .debug_aranges
                0x0000000000000160       0x20 /f29bms/libs/stm32libs/STM32F0xx_StdPeriph_Driver/src/stm32f0xx_cec.o
 .debug_aranges
                0x0000000000000180       0x20 /f29bms/libs/stm32libs/STM32F0xx_StdPeriph_Driver/src/stm32f0xx_comp.o
 .debug_aranges
                0x00000000000001a0       0x20 /f29bms/libs/stm32libs/STM32F0xx_StdPeriph_Driver/src/stm32f0xx_crc.o
 .debug_aranges
                0x00000000000001c0       0x20 /f29bms/libs/stm32libs/STM32F0xx_StdPeriph_Driver/src/stm32f0xx_crs.o
 .debug_aranges
                0x00000000000001e0       0x20 /f29bms/libs/stm32libs/STM32F0xx_StdPeriph_Driver/src/stm32f0xx_dac.o
 .debug_aranges
                0x0000000000000200       0x20 /f29bms/libs/stm32libs/STM32F0xx_StdPeriph_Driver/src/stm32f0xx_dbgmcu.o
 .debug_aranges
                0x0000000000000220       0x20 /f29bms/libs/stm32libs/STM32F0xx_StdPeriph_Driver/src/stm32f0xx_dma.o
 .debug_aranges
                0x0000000000000240       0x20 /f29bms/libs/stm32libs/STM32F0xx_StdPeriph_Driver/src/stm32f0xx_exti.o
 .debug_aranges
                0x0000000000000260       0x20 /f29bms/libs/stm32libs/STM32F0xx_StdPeriph_Driver/src/stm32f0xx_flash.o
 .debug_aranges
                0x0000000000000280       0x20 /f29bms/libs/stm32libs/STM32F0xx_StdPeriph_Driver/src/stm32f0xx_gpio.o
 .debug_aranges
                0x00000000000002a0       0x20 /f29bms/libs/stm32libs/STM32F0xx_StdPeriph_Driver/src/stm32f0xx_i2c.o
 .debug_aranges
                0x00000000000002c0       0x20 /f29bms/libs/stm32libs/STM32F0xx_StdPeriph_Driver/src/stm32f0xx_iwdg.o
 .debug_aranges
                0x00000000000002e0       0x20 /f29bms/libs/stm32libs/STM32F0xx_StdPeriph_Driver/src/stm32f0xx_misc.o
 .debug_aranges
                0x0000000000000300       0x20 /f29bms/libs/stm32libs/STM32F0xx_StdPeriph_Driver/src/stm32f0xx_pwr.o
 .debug_aranges
                0x0000000000000320       0x20 /f29bms/libs/stm32libs/STM32F0xx_StdPeriph_Driver/src/stm32f0xx_rcc.o
 .debug_aranges
                0x0000000000000340       0x20 /f29bms/libs/stm32libs/STM32F0xx_StdPeriph_Driver/src/stm32f0xx_rtc.o
 .debug_aranges
                0x0000000000000360       0x20 /f29bms/libs/stm32libs/STM32F0xx_StdPeriph_Driver/src/stm32f0xx_spi.o
 .debug_aranges
                0x0000000000000380       0x20 /f29bms/libs/stm32libs/STM32F0xx_StdPeriph_Driver/src/stm32f0xx_syscfg.o
 .debug_aranges
                0x00000000000003a0       0x20 /f29bms/libs/stm32libs/STM32F0xx_StdPeriph_Driver/src/stm32f0xx_tim.o
 .debug_aranges
                0x00000000000003c0       0x20 /f29bms/libs/stm32libs/STM32F0xx_StdPeriph_Driver/src/stm32f0xx_usart.o
 .debug_aranges
                0x00000000000003e0       0x20 /f29bms/libs/stm32libs/STM32F0xx_StdPeriph_Driver/src/stm32f0xx_wwdg.o
 .debug_aranges
                0x0000000000000400       0x20 /f29bms/libs/stm32libs/CMSIS/Device/ST/STM32F0xx/Source/Templates/system_stm32f0xx.o
 .debug_aranges
                0x0000000000000420       0x20 /f29bms/src/app/CAN/STM32_f29bms_dbc.o
 .debug_aranges
                0x0000000000000440       0x20 /usr/lib/gcc/arm-none-eabi/9.2.1/thumb/v6-m/nofp/libgcc.a(_udivsi3.o)
 .debug_aranges
                0x0000000000000460       0x20 /usr/lib/gcc/arm-none-eabi/9.2.1/thumb/v6-m/nofp/libgcc.a(_dvmd_tls.o)
 .debug_aranges
                0x0000000000000480       0x20 /usr/lib/gcc/arm-none-eabi/9.2.1/thumb/v6-m/nofp/libgcc.a(_muldi3.o)
 .debug_aranges
                0x00000000000004a0       0x20 /usr/lib/gcc/arm-none-eabi/9.2.1/thumb/v6-m/nofp/libgcc.a(_fixunsdfsi.o)
 .debug_aranges
                0x00000000000004c0       0x20 /usr/lib/gcc/arm-none-eabi/9.2.1/thumb/v6-m/nofp/libgcc.a(_fixunsdfdi.o)
 .debug_aranges
                0x00000000000004e0       0x20 /usr/lib/gcc/arm-none-eabi/9.2.1/thumb/v6-m/nofp/libgcc.a(_floatundidf.o)
 .debug_aranges
                0x0000000000000500       0x20 /usr/lib/gcc/arm-none-eabi/9.2.1/thumb/v6-m/nofp/libgcc.a(divsf3.o)
 .debug_aranges
                0x0000000000000520       0x20 /usr/lib/gcc/arm-none-eabi/9.2.1/thumb/v6-m/nofp/libgcc.a(mulsf3.o)
 .debug_aranges
                0x0000000000000540       0x20 /usr/lib/gcc/arm-none-eabi/9.2.1/thumb/v6-m/nofp/libgcc.a(floatsisf.o)
 .debug_aranges
                0x0000000000000560       0x20 /usr/lib/gcc/arm-none-eabi/9.2.1/thumb/v6-m/nofp/libgcc.a(floatunsisf.o)
 .debug_aranges
                0x0000000000000580       0x20 /usr/lib/gcc/arm-none-eabi/9.2.1/thumb/v6-m/nofp/libgcc.a(adddf3.o)
 .debug_aranges
                0x00000000000005a0       0x20 /usr/lib/gcc/arm-none-eabi/9.2.1/thumb/v6-m/nofp/libgcc.a(divdf3.o)
 .debug_aranges
                0x00000000000005c0       0x20 /usr/lib/gcc/arm-none-eabi/9.2.1/thumb/v6-m/nofp/libgcc.a(muldf3.o)
 .debug_aranges
                0x00000000000005e0       0x20 /usr/lib/gcc/arm-none-eabi/9.2.1/thumb/v6-m/nofp/libgcc.a(subdf3.o)
 .debug_aranges
                0x0000000000000600       0x20 /usr/lib/gcc/arm-none-eabi/9.2.1/thumb/v6-m/nofp/libgcc.a(fixdfsi.o)
 .debug_aranges
                0x0000000000000620       0x20 /usr/lib/gcc/arm-none-eabi/9.2.1/thumb/v6-m/nofp/libgcc.a(floatsidf.o)
 .debug_aranges
                0x0000000000000640       0x20 /usr/lib/gcc/arm-none-eabi/9.2.1/thumb/v6-m/nofp/libgcc.a(floatunsidf.o)
 .debug_aranges
                0x0000000000000660       0x20 /usr/lib/gcc/arm-none-eabi/9.2.1/thumb/v6-m/nofp/libgcc.a(extendsfdf2.o)
 .debug_aranges
                0x0000000000000680       0x20 /usr/lib/gcc/arm-none-eabi/9.2.1/thumb/v6-m/nofp/libgcc.a(truncdfsf2.o)
 .debug_aranges
                0x00000000000006a0       0x20 /usr/lib/gcc/arm-none-eabi/9.2.1/thumb/v6-m/nofp/libgcc.a(_arm_cmpdf2.o)
 .debug_aranges
                0x00000000000006c0       0x20 /usr/lib/gcc/arm-none-eabi/9.2.1/thumb/v6-m/nofp/libgcc.a(_clzsi2.o)
 .debug_aranges
                0x00000000000006e0       0x20 /usr/lib/gcc/arm-none-eabi/9.2.1/thumb/v6-m/nofp/libgcc.a(eqdf2.o)
 .debug_aranges
                0x0000000000000700       0x20 /usr/lib/gcc/arm-none-eabi/9.2.1/thumb/v6-m/nofp/libgcc.a(gedf2.o)
 .debug_aranges
                0x0000000000000720       0x20 /usr/lib/gcc/arm-none-eabi/9.2.1/thumb/v6-m/nofp/libgcc.a(ledf2.o)
 .debug_aranges
                0x0000000000000740       0x20 /usr/lib/gcc/arm-none-eabi/9.2.1/../../../arm-none-eabi/lib/thumb/v6-m/nofp/libc.a(lib_a-atexit.o)
 .debug_aranges
                0x0000000000000760       0x20 /usr/lib/gcc/arm-none-eabi/9.2.1/../../../arm-none-eabi/lib/thumb/v6-m/nofp/libc.a(lib_a-exit.o)
 .debug_aranges
                0x0000000000000780       0x20 /usr/lib/gcc/arm-none-eabi/9.2.1/../../../arm-none-eabi/lib/thumb/v6-m/nofp/libc.a(lib_a-fini.o)
 .debug_aranges
                0x00000000000007a0       0x18 /usr/lib/gcc/arm-none-eabi/9.2.1/../../../arm-none-eabi/lib/thumb/v6-m/nofp/libc.a(lib_a-impure.o)
 .debug_aranges
                0x00000000000007b8       0x20 /usr/lib/gcc/arm-none-eabi/9.2.1/../../../arm-none-eabi/lib/thumb/v6-m/nofp/libc.a(lib_a-init.o)
 .debug_aranges
                0x00000000000007d8       0x20 /usr/lib/gcc/arm-none-eabi/9.2.1/../../../arm-none-eabi/lib/thumb/v6-m/nofp/libc.a(lib_a-malloc.o)
 .debug_aranges
                0x00000000000007f8       0x20 /usr/lib/gcc/arm-none-eabi/9.2.1/../../../arm-none-eabi/lib/thumb/v6-m/nofp/libc.a(lib_a-mallocr.o)
 .debug_aranges
                0x0000000000000818       0x20 /usr/lib/gcc/arm-none-eabi/9.2.1/../../../arm-none-eabi/lib/thumb/v6-m/nofp/libc.a(lib_a-memcpy-stub.o)
 .debug_aranges
                0x0000000000000838       0x20 /usr/lib/gcc/arm-none-eabi/9.2.1/../../../arm-none-eabi/lib/thumb/v6-m/nofp/libc.a(lib_a-memset.o)
 .debug_aranges
                0x0000000000000858       0x20 /usr/lib/gcc/arm-none-eabi/9.2.1/../../../arm-none-eabi/lib/thumb/v6-m/nofp/libc.a(lib_a-mlock.o)
 .debug_aranges
                0x0000000000000878       0x20 /usr/lib/gcc/arm-none-eabi/9.2.1/../../../arm-none-eabi/lib/thumb/v6-m/nofp/libc.a(lib_a-sbrkr.o)
 .debug_aranges
                0x0000000000000898       0x20 /usr/lib/gcc/arm-none-eabi/9.2.1/../../../arm-none-eabi/lib/thumb/v6-m/nofp/libc.a(lib_a-__atexit.o)
 .debug_aranges
                0x00000000000008b8       0x28 /usr/lib/gcc/arm-none-eabi/9.2.1/../../../arm-none-eabi/lib/thumb/v6-m/nofp/libc.a(lib_a-__call_atexit.o)
 .debug_aranges
                0x00000000000008e0       0x20 /usr/lib/gcc/arm-none-eabi/9.2.1/../../../arm-none-eabi/lib/thumb/v6-m/nofp/libc.a(lib_a-freer.o)
 .debug_aranges
                0x0000000000000900       0x20 /usr/lib/gcc/arm-none-eabi/9.2.1/../../../arm-none-eabi/lib/thumb/v6-m/nofp/libc.a(lib_a-reent.o)
 .debug_aranges
                0x0000000000000920       0x20 /usr/lib/gcc/arm-none-eabi/9.2.1/../../../arm-none-eabi/lib/thumb/v6-m/nofp/libnosys.a(sbrk.o)
 .debug_aranges
                0x0000000000000940       0x20 /usr/lib/gcc/arm-none-eabi/9.2.1/../../../arm-none-eabi/lib/thumb/v6-m/nofp/libnosys.a(_exit.o)

.debug_str      0x0000000000000000    0x10746
 .debug_str     0x0000000000000000       0x94 /usr/lib/gcc/arm-none-eabi/9.2.1/../../../arm-none-eabi/lib/thumb/v6-m/nofp/crt0.o
 .debug_str     0x0000000000000094       0xb8 /f29bms/src/driver/HAL_Spi/test_STM32_HAL_Spi.o
 .debug_str     0x000000000000014c     0x1880 /f29bms/src/driver/HAL_Can/STM32_HAL_Can.o
                                       0x19db (size before relaxing)
 .debug_str     0x00000000000019cc      0x149 /f29bms/src/driver/HAL_CurrentSensor/STM32_HAL_CurrentSensor.o
                                        0x479 (size before relaxing)
 .debug_str     0x0000000000001b15       0x29 /f29bms/src/driver/HAL_EEPROM/STM32_HAL_EEPROM.o
                                         0xb4 (size before relaxing)
 .debug_str     0x0000000000001b3e      0x128 /f29bms/src/driver/HAL_Gpio/STM32_HAL_Gpio.o
                                        0x805 (size before relaxing)
 .debug_str     0x0000000000001c66      0x459 /f29bms/src/driver/HAL_SlaveChips/STM32_HAL_SlaveChips.o
                                        0xa2b (size before relaxing)
 .debug_str     0x00000000000020bf       0x3f /f29bms/src/driver/HAL_Watchdog/STM32_HAL_Watchdog.o
                                        0x176 (size before relaxing)
 .debug_str     0x00000000000020fe      0x113 /f29bms/src/driver/HAL_Spi/STM32_HAL_Spi.o
                                        0x452 (size before relaxing)
 .debug_str     0x0000000000002211       0x61 /f29bms/src/common/counters/STM32_counters.o
                                         0xfa (size before relaxing)
 .debug_str     0x0000000000002272      0x374 /f29bms/libs/stm32libs/STM32F0xx_StdPeriph_Driver/src/stm32f0xx_adc.o
                                        0x5b8 (size before relaxing)
 .debug_str     0x00000000000025e6      0x3da /f29bms/libs/stm32libs/STM32F0xx_StdPeriph_Driver/src/stm32f0xx_can.o
                                        0x70a (size before relaxing)
 .debug_str     0x00000000000029c0      0x206 /f29bms/libs/stm32libs/STM32F0xx_StdPeriph_Driver/src/stm32f0xx_cec.o
                                        0x3a9 (size before relaxing)
 .debug_str     0x0000000000002bc6      0x13e /f29bms/libs/stm32libs/STM32F0xx_StdPeriph_Driver/src/stm32f0xx_comp.o
                                        0x295 (size before relaxing)
 .debug_str     0x0000000000002d04      0x1af /f29bms/libs/stm32libs/STM32F0xx_StdPeriph_Driver/src/stm32f0xx_crc.o
                                        0x334 (size before relaxing)
 .debug_str     0x0000000000002eb3      0x2a6 /f29bms/libs/stm32libs/STM32F0xx_StdPeriph_Driver/src/stm32f0xx_crs.o
                                        0x41d (size before relaxing)
 .debug_str     0x0000000000003159      0x283 /f29bms/libs/stm32libs/STM32F0xx_StdPeriph_Driver/src/stm32f0xx_dac.o
                                        0x41f (size before relaxing)
 .debug_str     0x00000000000033dc       0xd1 /f29bms/libs/stm32libs/STM32F0xx_StdPeriph_Driver/src/stm32f0xx_dbgmcu.o
                                        0x221 (size before relaxing)
 .debug_str     0x00000000000034ad      0x24a /f29bms/libs/stm32libs/STM32F0xx_StdPeriph_Driver/src/stm32f0xx_dma.o
                                        0x3d8 (size before relaxing)
 .debug_str     0x00000000000036f7      0x1c2 /f29bms/libs/stm32libs/STM32F0xx_StdPeriph_Driver/src/stm32f0xx_exti.o
                                        0x32d (size before relaxing)
 .debug_str     0x00000000000038b9      0x416 /f29bms/libs/stm32libs/STM32F0xx_StdPeriph_Driver/src/stm32f0xx_flash.o
                                        0x5b7 (size before relaxing)
 .debug_str     0x0000000000003ccf      0x17d /f29bms/libs/stm32libs/STM32F0xx_StdPeriph_Driver/src/stm32f0xx_gpio.o
                                        0x475 (size before relaxing)
 .debug_str     0x0000000000003e4c      0x466 /f29bms/libs/stm32libs/STM32F0xx_StdPeriph_Driver/src/stm32f0xx_i2c.o
                                        0x623 (size before relaxing)
 .debug_str     0x00000000000042b2       0xf6 /f29bms/libs/stm32libs/STM32F0xx_StdPeriph_Driver/src/stm32f0xx_iwdg.o
                                        0x25d (size before relaxing)
 .debug_str     0x00000000000043a8      0x160 /f29bms/libs/stm32libs/STM32F0xx_StdPeriph_Driver/src/stm32f0xx_misc.o
                                        0x2ea (size before relaxing)
 .debug_str     0x0000000000004508      0x153 /f29bms/libs/stm32libs/STM32F0xx_StdPeriph_Driver/src/stm32f0xx_pwr.o
                                        0x30a (size before relaxing)
 .debug_str     0x000000000000465b      0x578 /f29bms/libs/stm32libs/STM32F0xx_StdPeriph_Driver/src/stm32f0xx_rcc.o
                                        0x788 (size before relaxing)
 .debug_str     0x0000000000004bd3      0x857 /f29bms/libs/stm32libs/STM32F0xx_StdPeriph_Driver/src/stm32f0xx_rtc.o
                                        0xa3b (size before relaxing)
 .debug_str     0x000000000000542a      0x3a4 /f29bms/libs/stm32libs/STM32F0xx_StdPeriph_Driver/src/stm32f0xx_spi.o
                                        0x720 (size before relaxing)
 .debug_str     0x00000000000057ce      0x1da /f29bms/libs/stm32libs/STM32F0xx_StdPeriph_Driver/src/stm32f0xx_syscfg.o
                                        0x36c (size before relaxing)
 .debug_str     0x00000000000059a8      0xb0e /f29bms/libs/stm32libs/STM32F0xx_StdPeriph_Driver/src/stm32f0xx_tim.o
                                        0xdc7 (size before relaxing)
 .debug_str     0x00000000000064b6      0x6e3 /f29bms/libs/stm32libs/STM32F0xx_StdPeriph_Driver/src/stm32f0xx_usart.o
                                        0x975 (size before relaxing)
 .debug_str     0x0000000000006b99       0xd9 /f29bms/libs/stm32libs/STM32F0xx_StdPeriph_Driver/src/stm32f0xx_wwdg.o
                                        0x257 (size before relaxing)
 .debug_str     0x0000000000006c72       0x7a /f29bms/libs/stm32libs/CMSIS/Device/ST/STM32F0xx/Source/Templates/system_stm32f0xx.o
                                        0x27c (size before relaxing)
 .debug_str     0x0000000000006cec     0x748d /f29bms/src/app/CAN/STM32_f29bms_dbc.o
                                       0x8aa3 (size before relaxing)
 .debug_str     0x000000000000e179       0x97 /usr/lib/gcc/arm-none-eabi/9.2.1/thumb/v6-m/nofp/libgcc.a(_udivsi3.o)
                                         0xa3 (size before relaxing)
 .debug_str     0x000000000000e210       0xa3 /usr/lib/gcc/arm-none-eabi/9.2.1/thumb/v6-m/nofp/libgcc.a(_dvmd_tls.o)
 .debug_str     0x000000000000e210     0x10c5 /usr/lib/gcc/arm-none-eabi/9.2.1/thumb/v6-m/nofp/libgcc.a(_muldi3.o)
                                       0x11cb (size before relaxing)
 .debug_str     0x000000000000f2d5       0x14 /usr/lib/gcc/arm-none-eabi/9.2.1/thumb/v6-m/nofp/libgcc.a(_fixunsdfsi.o)
                                       0x1191 (size before relaxing)
 .debug_str     0x000000000000f2e9       0x15 /usr/lib/gcc/arm-none-eabi/9.2.1/thumb/v6-m/nofp/libgcc.a(_fixunsdfdi.o)
                                       0x1192 (size before relaxing)
 .debug_str     0x000000000000f2fe        0xe /usr/lib/gcc/arm-none-eabi/9.2.1/thumb/v6-m/nofp/libgcc.a(_floatundidf.o)
                                       0x1193 (size before relaxing)
 .debug_str     0x000000000000f30c      0x14f /usr/lib/gcc/arm-none-eabi/9.2.1/thumb/v6-m/nofp/libgcc.a(divsf3.o)
                                        0x31b (size before relaxing)
 .debug_str     0x000000000000f45b       0x50 /usr/lib/gcc/arm-none-eabi/9.2.1/thumb/v6-m/nofp/libgcc.a(mulsf3.o)
                                        0x31b (size before relaxing)
 .debug_str     0x000000000000f4ab       0xb2 /usr/lib/gcc/arm-none-eabi/9.2.1/thumb/v6-m/nofp/libgcc.a(floatsisf.o)
                                        0x2bd (size before relaxing)
 .debug_str     0x000000000000f55d       0x1b /usr/lib/gcc/arm-none-eabi/9.2.1/thumb/v6-m/nofp/libgcc.a(floatunsisf.o)
                                        0x2b9 (size before relaxing)
 .debug_str     0x000000000000f578      0x102 /usr/lib/gcc/arm-none-eabi/9.2.1/thumb/v6-m/nofp/libgcc.a(adddf3.o)
                                        0x333 (size before relaxing)
 .debug_str     0x000000000000f67a      0x113 /usr/lib/gcc/arm-none-eabi/9.2.1/thumb/v6-m/nofp/libgcc.a(divdf3.o)
                                        0x3f5 (size before relaxing)
 .debug_str     0x000000000000f78d      0x13b /usr/lib/gcc/arm-none-eabi/9.2.1/thumb/v6-m/nofp/libgcc.a(muldf3.o)
                                        0x44d (size before relaxing)
 .debug_str     0x000000000000f8c8       0x16 /usr/lib/gcc/arm-none-eabi/9.2.1/thumb/v6-m/nofp/libgcc.a(subdf3.o)
                                        0x333 (size before relaxing)
 .debug_str     0x000000000000f8de       0x2a /usr/lib/gcc/arm-none-eabi/9.2.1/thumb/v6-m/nofp/libgcc.a(fixdfsi.o)
                                        0x249 (size before relaxing)
 .debug_str     0x000000000000f908       0x18 /usr/lib/gcc/arm-none-eabi/9.2.1/thumb/v6-m/nofp/libgcc.a(floatsidf.o)
                                        0x2e1 (size before relaxing)
 .debug_str     0x000000000000f920       0x1b /usr/lib/gcc/arm-none-eabi/9.2.1/thumb/v6-m/nofp/libgcc.a(floatunsidf.o)
                                        0x2dd (size before relaxing)
 .debug_str     0x000000000000f93b       0x27 /usr/lib/gcc/arm-none-eabi/9.2.1/thumb/v6-m/nofp/libgcc.a(extendsfdf2.o)
                                        0x268 (size before relaxing)
 .debug_str     0x000000000000f962       0x19 /usr/lib/gcc/arm-none-eabi/9.2.1/thumb/v6-m/nofp/libgcc.a(truncdfsf2.o)
                                        0x2c7 (size before relaxing)
 .debug_str     0x000000000000f97b       0x30 /usr/lib/gcc/arm-none-eabi/9.2.1/thumb/v6-m/nofp/libgcc.a(_arm_cmpdf2.o)
                                         0xa3 (size before relaxing)
 .debug_str     0x000000000000f9ab       0xa3 /usr/lib/gcc/arm-none-eabi/9.2.1/thumb/v6-m/nofp/libgcc.a(_clzsi2.o)
 .debug_str     0x000000000000f9ab       0x2f /usr/lib/gcc/arm-none-eabi/9.2.1/thumb/v6-m/nofp/libgcc.a(eqdf2.o)
                                        0x249 (size before relaxing)
 .debug_str     0x000000000000f9da       0x34 /usr/lib/gcc/arm-none-eabi/9.2.1/thumb/v6-m/nofp/libgcc.a(gedf2.o)
                                        0x26d (size before relaxing)
 .debug_str     0x000000000000fa0e       0x10 /usr/lib/gcc/arm-none-eabi/9.2.1/thumb/v6-m/nofp/libgcc.a(ledf2.o)
                                        0x26d (size before relaxing)
 .debug_str     0x000000000000fa1e      0x15f /usr/lib/gcc/arm-none-eabi/9.2.1/../../../arm-none-eabi/lib/thumb/v6-m/nofp/libc.a(lib_a-atexit.o)
                                        0x5e4 (size before relaxing)
 .debug_str     0x000000000000fb7d       0x6f /usr/lib/gcc/arm-none-eabi/9.2.1/../../../arm-none-eabi/lib/thumb/v6-m/nofp/libc.a(lib_a-exit.o)
                                        0x5e5 (size before relaxing)
 .debug_str     0x000000000000fbec       0xbd /usr/lib/gcc/arm-none-eabi/9.2.1/../../../arm-none-eabi/lib/thumb/v6-m/nofp/libc.a(lib_a-fini.o)
                                        0x1f3 (size before relaxing)
 .debug_str     0x000000000000fca9       0x97 /usr/lib/gcc/arm-none-eabi/9.2.1/../../../arm-none-eabi/lib/thumb/v6-m/nofp/libc.a(lib_a-impure.o)
                                        0x599 (size before relaxing)
 .debug_str     0x000000000000fd40       0x90 /usr/lib/gcc/arm-none-eabi/9.2.1/../../../arm-none-eabi/lib/thumb/v6-m/nofp/libc.a(lib_a-init.o)
                                        0x21d (size before relaxing)
 .debug_str     0x000000000000fdd0       0x57 /usr/lib/gcc/arm-none-eabi/9.2.1/../../../arm-none-eabi/lib/thumb/v6-m/nofp/libc.a(lib_a-malloc.o)
                                        0x5ca (size before relaxing)
 .debug_str     0x000000000000fe27      0x22a /usr/lib/gcc/arm-none-eabi/9.2.1/../../../arm-none-eabi/lib/thumb/v6-m/nofp/libc.a(lib_a-mallocr.o)
                                        0x801 (size before relaxing)
 .debug_str     0x0000000000010051      0x338 /usr/lib/gcc/arm-none-eabi/9.2.1/../../../arm-none-eabi/lib/thumb/v6-m/nofp/libc.a(lib_a-memcpy-stub.o)
                                        0x8eb (size before relaxing)
 .debug_str     0x0000000000010389       0xa8 /usr/lib/gcc/arm-none-eabi/9.2.1/../../../arm-none-eabi/lib/thumb/v6-m/nofp/libc.a(lib_a-memset.o)
                                        0x8c6 (size before relaxing)
 .debug_str     0x0000000000010431       0x4c /usr/lib/gcc/arm-none-eabi/9.2.1/../../../arm-none-eabi/lib/thumb/v6-m/nofp/libc.a(lib_a-mlock.o)
                                        0x5c5 (size before relaxing)
 .debug_str     0x000000000001047d       0x47 /usr/lib/gcc/arm-none-eabi/9.2.1/../../../arm-none-eabi/lib/thumb/v6-m/nofp/libc.a(lib_a-sbrkr.o)
                                        0x5dc (size before relaxing)
 .debug_str     0x00000000000104c4       0x4f /usr/lib/gcc/arm-none-eabi/9.2.1/../../../arm-none-eabi/lib/thumb/v6-m/nofp/libc.a(lib_a-__atexit.o)
                                        0x602 (size before relaxing)
 .debug_str     0x0000000000010513       0x63 /usr/lib/gcc/arm-none-eabi/9.2.1/../../../arm-none-eabi/lib/thumb/v6-m/nofp/libc.a(lib_a-__call_atexit.o)
                                        0x615 (size before relaxing)
 .debug_str     0x0000000000010576       0x34 /usr/lib/gcc/arm-none-eabi/9.2.1/../../../arm-none-eabi/lib/thumb/v6-m/nofp/libc.a(lib_a-freer.o)
                                        0x77a (size before relaxing)
 .debug_str     0x00000000000105aa       0x5e /usr/lib/gcc/arm-none-eabi/9.2.1/../../../arm-none-eabi/lib/thumb/v6-m/nofp/libc.a(lib_a-reent.o)
                                        0x5d5 (size before relaxing)
 .debug_str     0x0000000000010608      0x10f /usr/lib/gcc/arm-none-eabi/9.2.1/../../../arm-none-eabi/lib/thumb/v6-m/nofp/libnosys.a(sbrk.o)
                                        0x128 (size before relaxing)
 .debug_str     0x0000000000010717       0x2f /usr/lib/gcc/arm-none-eabi/9.2.1/../../../arm-none-eabi/lib/thumb/v6-m/nofp/libnosys.a(_exit.o)
                                        0x198 (size before relaxing)

.debug_frame    0x0000000000000000     0x9450
 .debug_frame   0x0000000000000000       0x2c /f29bms/src/driver/HAL_Spi/test_STM32_HAL_Spi.o
 .debug_frame   0x000000000000002c       0x74 /f29bms/src/driver/HAL_Can/STM32_HAL_Can.o
 .debug_frame   0x00000000000000a0       0x54 /f29bms/src/driver/HAL_CurrentSensor/STM32_HAL_CurrentSensor.o
 .debug_frame   0x00000000000000f4       0xb0 /f29bms/src/driver/HAL_Gpio/STM32_HAL_Gpio.o
 .debug_frame   0x00000000000001a4      0x21c /f29bms/src/driver/HAL_SlaveChips/STM32_HAL_SlaveChips.o
 .debug_frame   0x00000000000003c0       0x48 /f29bms/src/driver/HAL_Watchdog/STM32_HAL_Watchdog.o
 .debug_frame   0x0000000000000408       0x50 /f29bms/src/driver/HAL_Spi/STM32_HAL_Spi.o
 .debug_frame   0x0000000000000458       0x50 /f29bms/src/common/counters/STM32_counters.o
 .debug_frame   0x00000000000004a8      0x3d0 /f29bms/libs/stm32libs/STM32F0xx_StdPeriph_Driver/src/stm32f0xx_adc.o
 .debug_frame   0x0000000000000878      0x330 /f29bms/libs/stm32libs/STM32F0xx_StdPeriph_Driver/src/stm32f0xx_can.o
 .debug_frame   0x0000000000000ba8      0x1fc /f29bms/libs/stm32libs/STM32F0xx_StdPeriph_Driver/src/stm32f0xx_cec.o
 .debug_frame   0x0000000000000da4      0x10c /f29bms/libs/stm32libs/STM32F0xx_StdPeriph_Driver/src/stm32f0xx_comp.o
 .debug_frame   0x0000000000000eb0      0x1c0 /f29bms/libs/stm32libs/STM32F0xx_StdPeriph_Driver/src/stm32f0xx_crc.o
 .debug_frame   0x0000000000001070      0x258 /f29bms/libs/stm32libs/STM32F0xx_StdPeriph_Driver/src/stm32f0xx_crs.o
 .debug_frame   0x00000000000012c8      0x22c /f29bms/libs/stm32libs/STM32F0xx_StdPeriph_Driver/src/stm32f0xx_dac.o
 .debug_frame   0x00000000000014f4       0xa8 /f29bms/libs/stm32libs/STM32F0xx_StdPeriph_Driver/src/stm32f0xx_dbgmcu.o
 .debug_frame   0x000000000000159c      0x190 /f29bms/libs/stm32libs/STM32F0xx_StdPeriph_Driver/src/stm32f0xx_dma.o
 .debug_frame   0x000000000000172c      0x10c /f29bms/libs/stm32libs/STM32F0xx_StdPeriph_Driver/src/stm32f0xx_exti.o
 .debug_frame   0x0000000000001838      0x408 /f29bms/libs/stm32libs/STM32F0xx_StdPeriph_Driver/src/stm32f0xx_flash.o
 .debug_frame   0x0000000000001c40      0x1b0 /f29bms/libs/stm32libs/STM32F0xx_StdPeriph_Driver/src/stm32f0xx_gpio.o
 .debug_frame   0x0000000000001df0      0x550 /f29bms/libs/stm32libs/STM32F0xx_StdPeriph_Driver/src/stm32f0xx_i2c.o
 .debug_frame   0x0000000000002340       0xe8 /f29bms/libs/stm32libs/STM32F0xx_StdPeriph_Driver/src/stm32f0xx_iwdg.o
 .debug_frame   0x0000000000002428       0x70 /f29bms/libs/stm32libs/STM32F0xx_StdPeriph_Driver/src/stm32f0xx_misc.o
 .debug_frame   0x0000000000002498      0x148 /f29bms/libs/stm32libs/STM32F0xx_StdPeriph_Driver/src/stm32f0xx_pwr.o
 .debug_frame   0x00000000000025e0      0x524 /f29bms/libs/stm32libs/STM32F0xx_StdPeriph_Driver/src/stm32f0xx_rcc.o
 .debug_frame   0x0000000000002b04      0x6a0 /f29bms/libs/stm32libs/STM32F0xx_StdPeriph_Driver/src/stm32f0xx_rtc.o
 .debug_frame   0x00000000000031a4      0x3f4 /f29bms/libs/stm32libs/STM32F0xx_StdPeriph_Driver/src/stm32f0xx_spi.o
 .debug_frame   0x0000000000003598      0x14c /f29bms/libs/stm32libs/STM32F0xx_StdPeriph_Driver/src/stm32f0xx_syscfg.o
 .debug_frame   0x00000000000036e4      0xbe0 /f29bms/libs/stm32libs/STM32F0xx_StdPeriph_Driver/src/stm32f0xx_tim.o
 .debug_frame   0x00000000000042c4      0x630 /f29bms/libs/stm32libs/STM32F0xx_StdPeriph_Driver/src/stm32f0xx_usart.o
 .debug_frame   0x00000000000048f4      0x104 /f29bms/libs/stm32libs/STM32F0xx_StdPeriph_Driver/src/stm32f0xx_wwdg.o
 .debug_frame   0x00000000000049f8       0x6c /f29bms/libs/stm32libs/CMSIS/Device/ST/STM32F0xx/Source/Templates/system_stm32f0xx.o
 .debug_frame   0x0000000000004a64     0x4288 /f29bms/src/app/CAN/STM32_f29bms_dbc.o
 .debug_frame   0x0000000000008cec       0x20 /usr/lib/gcc/arm-none-eabi/9.2.1/thumb/v6-m/nofp/libgcc.a(_udivsi3.o)
 .debug_frame   0x0000000000008d0c       0x34 /usr/lib/gcc/arm-none-eabi/9.2.1/thumb/v6-m/nofp/libgcc.a(_muldi3.o)
 .debug_frame   0x0000000000008d40       0x2c /usr/lib/gcc/arm-none-eabi/9.2.1/thumb/v6-m/nofp/libgcc.a(_fixunsdfsi.o)
 .debug_frame   0x0000000000008d6c       0x2c /usr/lib/gcc/arm-none-eabi/9.2.1/thumb/v6-m/nofp/libgcc.a(_fixunsdfdi.o)
 .debug_frame   0x0000000000008d98       0x2c /usr/lib/gcc/arm-none-eabi/9.2.1/thumb/v6-m/nofp/libgcc.a(_floatundidf.o)
 .debug_frame   0x0000000000008dc4       0x38 /usr/lib/gcc/arm-none-eabi/9.2.1/thumb/v6-m/nofp/libgcc.a(divsf3.o)
 .debug_frame   0x0000000000008dfc       0x3c /usr/lib/gcc/arm-none-eabi/9.2.1/thumb/v6-m/nofp/libgcc.a(mulsf3.o)
 .debug_frame   0x0000000000008e38       0x2c /usr/lib/gcc/arm-none-eabi/9.2.1/thumb/v6-m/nofp/libgcc.a(floatsisf.o)
 .debug_frame   0x0000000000008e64       0x2c /usr/lib/gcc/arm-none-eabi/9.2.1/thumb/v6-m/nofp/libgcc.a(floatunsisf.o)
 .debug_frame   0x0000000000008e90       0x38 /usr/lib/gcc/arm-none-eabi/9.2.1/thumb/v6-m/nofp/libgcc.a(adddf3.o)
 .debug_frame   0x0000000000008ec8       0x3c /usr/lib/gcc/arm-none-eabi/9.2.1/thumb/v6-m/nofp/libgcc.a(divdf3.o)
 .debug_frame   0x0000000000008f04       0x3c /usr/lib/gcc/arm-none-eabi/9.2.1/thumb/v6-m/nofp/libgcc.a(muldf3.o)
 .debug_frame   0x0000000000008f40       0x3c /usr/lib/gcc/arm-none-eabi/9.2.1/thumb/v6-m/nofp/libgcc.a(subdf3.o)
 .debug_frame   0x0000000000008f7c       0x2c /usr/lib/gcc/arm-none-eabi/9.2.1/thumb/v6-m/nofp/libgcc.a(fixdfsi.o)
 .debug_frame   0x0000000000008fa8       0x2c /usr/lib/gcc/arm-none-eabi/9.2.1/thumb/v6-m/nofp/libgcc.a(floatsidf.o)
 .debug_frame   0x0000000000008fd4       0x28 /usr/lib/gcc/arm-none-eabi/9.2.1/thumb/v6-m/nofp/libgcc.a(floatunsidf.o)
 .debug_frame   0x0000000000008ffc       0x2c /usr/lib/gcc/arm-none-eabi/9.2.1/thumb/v6-m/nofp/libgcc.a(extendsfdf2.o)
 .debug_frame   0x0000000000009028       0x30 /usr/lib/gcc/arm-none-eabi/9.2.1/thumb/v6-m/nofp/libgcc.a(truncdfsf2.o)
 .debug_frame   0x0000000000009058       0x38 /usr/lib/gcc/arm-none-eabi/9.2.1/thumb/v6-m/nofp/libgcc.a(eqdf2.o)
 .debug_frame   0x0000000000009090       0x38 /usr/lib/gcc/arm-none-eabi/9.2.1/thumb/v6-m/nofp/libgcc.a(gedf2.o)
 .debug_frame   0x00000000000090c8       0x38 /usr/lib/gcc/arm-none-eabi/9.2.1/thumb/v6-m/nofp/libgcc.a(ledf2.o)
 .debug_frame   0x0000000000009100       0x28 /usr/lib/gcc/arm-none-eabi/9.2.1/../../../arm-none-eabi/lib/thumb/v6-m/nofp/libc.a(lib_a-atexit.o)
 .debug_frame   0x0000000000009128       0x28 /usr/lib/gcc/arm-none-eabi/9.2.1/../../../arm-none-eabi/lib/thumb/v6-m/nofp/libc.a(lib_a-exit.o)
 .debug_frame   0x0000000000009150       0x2c /usr/lib/gcc/arm-none-eabi/9.2.1/../../../arm-none-eabi/lib/thumb/v6-m/nofp/libc.a(lib_a-fini.o)
 .debug_frame   0x000000000000917c       0x2c /usr/lib/gcc/arm-none-eabi/9.2.1/../../../arm-none-eabi/lib/thumb/v6-m/nofp/libc.a(lib_a-init.o)
 .debug_frame   0x00000000000091a8       0x40 /usr/lib/gcc/arm-none-eabi/9.2.1/../../../arm-none-eabi/lib/thumb/v6-m/nofp/libc.a(lib_a-malloc.o)
 .debug_frame   0x00000000000091e8       0x3c /usr/lib/gcc/arm-none-eabi/9.2.1/../../../arm-none-eabi/lib/thumb/v6-m/nofp/libc.a(lib_a-mallocr.o)
 .debug_frame   0x0000000000009224       0x34 /usr/lib/gcc/arm-none-eabi/9.2.1/../../../arm-none-eabi/lib/thumb/v6-m/nofp/libc.a(lib_a-memcpy-stub.o)
 .debug_frame   0x0000000000009258       0x30 /usr/lib/gcc/arm-none-eabi/9.2.1/../../../arm-none-eabi/lib/thumb/v6-m/nofp/libc.a(lib_a-memset.o)
 .debug_frame   0x0000000000009288       0x30 /usr/lib/gcc/arm-none-eabi/9.2.1/../../../arm-none-eabi/lib/thumb/v6-m/nofp/libc.a(lib_a-mlock.o)
 .debug_frame   0x00000000000092b8       0x2c /usr/lib/gcc/arm-none-eabi/9.2.1/../../../arm-none-eabi/lib/thumb/v6-m/nofp/libc.a(lib_a-sbrkr.o)
 .debug_frame   0x00000000000092e4       0x38 /usr/lib/gcc/arm-none-eabi/9.2.1/../../../arm-none-eabi/lib/thumb/v6-m/nofp/libc.a(lib_a-__atexit.o)
 .debug_frame   0x000000000000931c       0x54 /usr/lib/gcc/arm-none-eabi/9.2.1/../../../arm-none-eabi/lib/thumb/v6-m/nofp/libc.a(lib_a-__call_atexit.o)
 .debug_frame   0x0000000000009370       0x58 /usr/lib/gcc/arm-none-eabi/9.2.1/../../../arm-none-eabi/lib/thumb/v6-m/nofp/libc.a(lib_a-freer.o)
 .debug_frame   0x00000000000093c8       0x48 /usr/lib/gcc/arm-none-eabi/9.2.1/../../../arm-none-eabi/lib/thumb/v6-m/nofp/libc.a(lib_a-reent.o)
 .debug_frame   0x0000000000009410       0x20 /usr/lib/gcc/arm-none-eabi/9.2.1/../../../arm-none-eabi/lib/thumb/v6-m/nofp/libnosys.a(sbrk.o)
 .debug_frame   0x0000000000009430       0x20 /usr/lib/gcc/arm-none-eabi/9.2.1/../../../arm-none-eabi/lib/thumb/v6-m/nofp/libnosys.a(_exit.o)

.debug_loc      0x0000000000000000     0xb650
 .debug_loc     0x0000000000000000      0x17f /usr/lib/gcc/arm-none-eabi/9.2.1/thumb/v6-m/nofp/libgcc.a(_muldi3.o)
 .debug_loc     0x000000000000017f       0x2c /usr/lib/gcc/arm-none-eabi/9.2.1/thumb/v6-m/nofp/libgcc.a(_fixunsdfsi.o)
 .debug_loc     0x00000000000001ab       0xad /usr/lib/gcc/arm-none-eabi/9.2.1/thumb/v6-m/nofp/libgcc.a(_fixunsdfdi.o)
 .debug_loc     0x0000000000000258       0x6f /usr/lib/gcc/arm-none-eabi/9.2.1/thumb/v6-m/nofp/libgcc.a(_floatundidf.o)
 .debug_loc     0x00000000000002c7      0x836 /usr/lib/gcc/arm-none-eabi/9.2.1/thumb/v6-m/nofp/libgcc.a(divsf3.o)
 .debug_loc     0x0000000000000afd      0xa5f /usr/lib/gcc/arm-none-eabi/9.2.1/thumb/v6-m/nofp/libgcc.a(mulsf3.o)
 .debug_loc     0x000000000000155c      0x1ea /usr/lib/gcc/arm-none-eabi/9.2.1/thumb/v6-m/nofp/libgcc.a(floatsisf.o)
 .debug_loc     0x0000000000001746      0x201 /usr/lib/gcc/arm-none-eabi/9.2.1/thumb/v6-m/nofp/libgcc.a(floatunsisf.o)
 .debug_loc     0x0000000000001947     0x1822 /usr/lib/gcc/arm-none-eabi/9.2.1/thumb/v6-m/nofp/libgcc.a(adddf3.o)
 .debug_loc     0x0000000000003169     0x2061 /usr/lib/gcc/arm-none-eabi/9.2.1/thumb/v6-m/nofp/libgcc.a(divdf3.o)
 .debug_loc     0x00000000000051ca     0x1242 /usr/lib/gcc/arm-none-eabi/9.2.1/thumb/v6-m/nofp/libgcc.a(muldf3.o)
 .debug_loc     0x000000000000640c     0x1bec /usr/lib/gcc/arm-none-eabi/9.2.1/thumb/v6-m/nofp/libgcc.a(subdf3.o)
 .debug_loc     0x0000000000007ff8      0x13d /usr/lib/gcc/arm-none-eabi/9.2.1/thumb/v6-m/nofp/libgcc.a(fixdfsi.o)
 .debug_loc     0x0000000000008135      0x248 /usr/lib/gcc/arm-none-eabi/9.2.1/thumb/v6-m/nofp/libgcc.a(floatsidf.o)
 .debug_loc     0x000000000000837d      0x26c /usr/lib/gcc/arm-none-eabi/9.2.1/thumb/v6-m/nofp/libgcc.a(floatunsidf.o)
 .debug_loc     0x00000000000085e9      0x2d4 /usr/lib/gcc/arm-none-eabi/9.2.1/thumb/v6-m/nofp/libgcc.a(extendsfdf2.o)
 .debug_loc     0x00000000000088bd      0x42a /usr/lib/gcc/arm-none-eabi/9.2.1/thumb/v6-m/nofp/libgcc.a(truncdfsf2.o)
 .debug_loc     0x0000000000008ce7      0x165 /usr/lib/gcc/arm-none-eabi/9.2.1/thumb/v6-m/nofp/libgcc.a(eqdf2.o)
 .debug_loc     0x0000000000008e4c      0x306 /usr/lib/gcc/arm-none-eabi/9.2.1/thumb/v6-m/nofp/libgcc.a(gedf2.o)
 .debug_loc     0x0000000000009152      0x312 /usr/lib/gcc/arm-none-eabi/9.2.1/thumb/v6-m/nofp/libgcc.a(ledf2.o)
 .debug_loc     0x0000000000009464       0x32 /usr/lib/gcc/arm-none-eabi/9.2.1/../../../arm-none-eabi/lib/thumb/v6-m/nofp/libc.a(lib_a-atexit.o)
 .debug_loc     0x0000000000009496       0x22 /usr/lib/gcc/arm-none-eabi/9.2.1/../../../arm-none-eabi/lib/thumb/v6-m/nofp/libc.a(lib_a-exit.o)
 .debug_loc     0x00000000000094b8       0x46 /usr/lib/gcc/arm-none-eabi/9.2.1/../../../arm-none-eabi/lib/thumb/v6-m/nofp/libc.a(lib_a-fini.o)
 .debug_loc     0x00000000000094fe       0x98 /usr/lib/gcc/arm-none-eabi/9.2.1/../../../arm-none-eabi/lib/thumb/v6-m/nofp/libc.a(lib_a-init.o)
 .debug_loc     0x0000000000009596       0x64 /usr/lib/gcc/arm-none-eabi/9.2.1/../../../arm-none-eabi/lib/thumb/v6-m/nofp/libc.a(lib_a-malloc.o)
 .debug_loc     0x00000000000095fa      0xf19 /usr/lib/gcc/arm-none-eabi/9.2.1/../../../arm-none-eabi/lib/thumb/v6-m/nofp/libc.a(lib_a-mallocr.o)
 .debug_loc     0x000000000000a513      0x481 /usr/lib/gcc/arm-none-eabi/9.2.1/../../../arm-none-eabi/lib/thumb/v6-m/nofp/libc.a(lib_a-memcpy-stub.o)
 .debug_loc     0x000000000000a994      0x2df /usr/lib/gcc/arm-none-eabi/9.2.1/../../../arm-none-eabi/lib/thumb/v6-m/nofp/libc.a(lib_a-memset.o)
 .debug_loc     0x000000000000ac73       0x79 /usr/lib/gcc/arm-none-eabi/9.2.1/../../../arm-none-eabi/lib/thumb/v6-m/nofp/libc.a(lib_a-sbrkr.o)
 .debug_loc     0x000000000000acec      0x164 /usr/lib/gcc/arm-none-eabi/9.2.1/../../../arm-none-eabi/lib/thumb/v6-m/nofp/libc.a(lib_a-__atexit.o)
 .debug_loc     0x000000000000ae50      0x1e6 /usr/lib/gcc/arm-none-eabi/9.2.1/../../../arm-none-eabi/lib/thumb/v6-m/nofp/libc.a(lib_a-__call_atexit.o)
 .debug_loc     0x000000000000b036      0x4a9 /usr/lib/gcc/arm-none-eabi/9.2.1/../../../arm-none-eabi/lib/thumb/v6-m/nofp/libc.a(lib_a-freer.o)
 .debug_loc     0x000000000000b4df      0x111 /usr/lib/gcc/arm-none-eabi/9.2.1/../../../arm-none-eabi/lib/thumb/v6-m/nofp/libc.a(lib_a-reent.o)
 .debug_loc     0x000000000000b5f0       0x4b /usr/lib/gcc/arm-none-eabi/9.2.1/../../../arm-none-eabi/lib/thumb/v6-m/nofp/libnosys.a(sbrk.o)
 .debug_loc     0x000000000000b63b       0x15 /usr/lib/gcc/arm-none-eabi/9.2.1/../../../arm-none-eabi/lib/thumb/v6-m/nofp/libnosys.a(_exit.o)

.debug_ranges   0x0000000000000000      0xc80
 .debug_ranges  0x0000000000000000       0x40 /usr/lib/gcc/arm-none-eabi/9.2.1/thumb/v6-m/nofp/libgcc.a(_muldi3.o)
 .debug_ranges  0x0000000000000040       0x70 /usr/lib/gcc/arm-none-eabi/9.2.1/thumb/v6-m/nofp/libgcc.a(divsf3.o)
 .debug_ranges  0x00000000000000b0       0x60 /usr/lib/gcc/arm-none-eabi/9.2.1/thumb/v6-m/nofp/libgcc.a(mulsf3.o)
 .debug_ranges  0x0000000000000110       0x38 /usr/lib/gcc/arm-none-eabi/9.2.1/thumb/v6-m/nofp/libgcc.a(floatsisf.o)
 .debug_ranges  0x0000000000000148       0x38 /usr/lib/gcc/arm-none-eabi/9.2.1/thumb/v6-m/nofp/libgcc.a(floatunsisf.o)
 .debug_ranges  0x0000000000000180      0x248 /usr/lib/gcc/arm-none-eabi/9.2.1/thumb/v6-m/nofp/libgcc.a(adddf3.o)
 .debug_ranges  0x00000000000003c8      0x1f0 /usr/lib/gcc/arm-none-eabi/9.2.1/thumb/v6-m/nofp/libgcc.a(divdf3.o)
 .debug_ranges  0x00000000000005b8      0x1d0 /usr/lib/gcc/arm-none-eabi/9.2.1/thumb/v6-m/nofp/libgcc.a(muldf3.o)
 .debug_ranges  0x0000000000000788      0x248 /usr/lib/gcc/arm-none-eabi/9.2.1/thumb/v6-m/nofp/libgcc.a(subdf3.o)
 .debug_ranges  0x00000000000009d0       0x28 /usr/lib/gcc/arm-none-eabi/9.2.1/thumb/v6-m/nofp/libgcc.a(fixdfsi.o)
 .debug_ranges  0x00000000000009f8       0x38 /usr/lib/gcc/arm-none-eabi/9.2.1/thumb/v6-m/nofp/libgcc.a(floatsidf.o)
 .debug_ranges  0x0000000000000a30       0x38 /usr/lib/gcc/arm-none-eabi/9.2.1/thumb/v6-m/nofp/libgcc.a(floatunsidf.o)
 .debug_ranges  0x0000000000000a68       0x38 /usr/lib/gcc/arm-none-eabi/9.2.1/thumb/v6-m/nofp/libgcc.a(extendsfdf2.o)
 .debug_ranges  0x0000000000000aa0       0x60 /usr/lib/gcc/arm-none-eabi/9.2.1/thumb/v6-m/nofp/libgcc.a(truncdfsf2.o)
 .debug_ranges  0x0000000000000b00       0x48 /usr/lib/gcc/arm-none-eabi/9.2.1/thumb/v6-m/nofp/libgcc.a(eqdf2.o)
 .debug_ranges  0x0000000000000b48       0x68 /usr/lib/gcc/arm-none-eabi/9.2.1/thumb/v6-m/nofp/libgcc.a(gedf2.o)
 .debug_ranges  0x0000000000000bb0       0x60 /usr/lib/gcc/arm-none-eabi/9.2.1/thumb/v6-m/nofp/libgcc.a(ledf2.o)
 .debug_ranges  0x0000000000000c10       0x38 /usr/lib/gcc/arm-none-eabi/9.2.1/../../../arm-none-eabi/lib/thumb/v6-m/nofp/libc.a(lib_a-mallocr.o)
 .debug_ranges  0x0000000000000c48       0x38 /usr/lib/gcc/arm-none-eabi/9.2.1/../../../arm-none-eabi/lib/thumb/v6-m/nofp/libc.a(lib_a-__call_atexit.o)
